
Calculator.elf:     file format elf32-avr

Sections:
Idx Name          Size      VMA       LMA       File off  Algn
  0 .text         0000102c  00000000  00000000  00000094  2**1
                  CONTENTS, ALLOC, LOAD, READONLY, CODE
  1 .data         00000026  00800060  0000102c  000010c0  2**0
                  CONTENTS, ALLOC, LOAD, DATA
  2 .bss          00000008  00800086  00800086  000010e6  2**0
                  ALLOC
  3 .comment      00000030  00000000  00000000  000010e6  2**0
                  CONTENTS, READONLY
  4 .note.gnu.avr.deviceinfo 0000003c  00000000  00000000  00001118  2**2
                  CONTENTS, READONLY
  5 .debug_aranges 000001e8  00000000  00000000  00001154  2**0
                  CONTENTS, READONLY, DEBUGGING
  6 .debug_info   00002358  00000000  00000000  0000133c  2**0
                  CONTENTS, READONLY, DEBUGGING
  7 .debug_abbrev 00000c83  00000000  00000000  00003694  2**0
                  CONTENTS, READONLY, DEBUGGING
  8 .debug_line   00001873  00000000  00000000  00004317  2**0
                  CONTENTS, READONLY, DEBUGGING
  9 .debug_frame  00000604  00000000  00000000  00005b8c  2**2
                  CONTENTS, READONLY, DEBUGGING
 10 .debug_str    000072ab  00000000  00000000  00006190  2**0
                  CONTENTS, READONLY, DEBUGGING
 11 .debug_loc    00001e86  00000000  00000000  0000d43b  2**0
                  CONTENTS, READONLY, DEBUGGING
 12 .debug_ranges 000001d0  00000000  00000000  0000f2c1  2**0
                  CONTENTS, READONLY, DEBUGGING
 13 .debug_macro  0000281d  00000000  00000000  0000f491  2**0
                  CONTENTS, READONLY, DEBUGGING

Disassembly of section .text:

00000000 <__vectors>:
       0:	0c 94 59 00 	jmp	0xb2	; 0xb2 <__ctors_end>
       4:	0c 94 76 00 	jmp	0xec	; 0xec <__bad_interrupt>
       8:	0c 94 76 00 	jmp	0xec	; 0xec <__bad_interrupt>
       c:	0c 94 76 00 	jmp	0xec	; 0xec <__bad_interrupt>
      10:	0c 94 76 00 	jmp	0xec	; 0xec <__bad_interrupt>
      14:	0c 94 76 00 	jmp	0xec	; 0xec <__bad_interrupt>
      18:	0c 94 76 00 	jmp	0xec	; 0xec <__bad_interrupt>
      1c:	0c 94 76 00 	jmp	0xec	; 0xec <__bad_interrupt>
      20:	0c 94 76 00 	jmp	0xec	; 0xec <__bad_interrupt>
      24:	0c 94 76 00 	jmp	0xec	; 0xec <__bad_interrupt>
      28:	0c 94 76 00 	jmp	0xec	; 0xec <__bad_interrupt>
      2c:	0c 94 76 00 	jmp	0xec	; 0xec <__bad_interrupt>
      30:	0c 94 76 00 	jmp	0xec	; 0xec <__bad_interrupt>
      34:	0c 94 76 00 	jmp	0xec	; 0xec <__bad_interrupt>
      38:	0c 94 76 00 	jmp	0xec	; 0xec <__bad_interrupt>
      3c:	0c 94 76 00 	jmp	0xec	; 0xec <__bad_interrupt>
      40:	0c 94 76 00 	jmp	0xec	; 0xec <__bad_interrupt>
      44:	0c 94 76 00 	jmp	0xec	; 0xec <__bad_interrupt>
      48:	0c 94 76 00 	jmp	0xec	; 0xec <__bad_interrupt>
      4c:	0c 94 76 00 	jmp	0xec	; 0xec <__bad_interrupt>
      50:	0c 94 76 00 	jmp	0xec	; 0xec <__bad_interrupt>
      54:	b8 05       	cpc	r27, r8
      56:	92 05       	cpc	r25, r2
      58:	73 05       	cpc	r23, r3
      5a:	92 05       	cpc	r25, r2
      5c:	73 05       	cpc	r23, r3
      5e:	92 05       	cpc	r25, r2
      60:	80 05       	cpc	r24, r0
      62:	80 05       	cpc	r24, r0
      64:	80 05       	cpc	r24, r0
      66:	80 05       	cpc	r24, r0
      68:	80 05       	cpc	r24, r0
      6a:	80 05       	cpc	r24, r0
      6c:	80 05       	cpc	r24, r0
      6e:	80 05       	cpc	r24, r0
      70:	80 05       	cpc	r24, r0
      72:	80 05       	cpc	r24, r0
      74:	73 05       	cpc	r23, r3
      76:	73 05       	cpc	r23, r3
      78:	73 05       	cpc	r23, r3
      7a:	c3 05       	cpc	r28, r3
      7c:	73 05       	cpc	r23, r3
      7e:	73 05       	cpc	r23, r3
      80:	73 05       	cpc	r23, r3
      82:	73 05       	cpc	r23, r3
      84:	73 05       	cpc	r23, r3
      86:	73 05       	cpc	r23, r3
      88:	73 05       	cpc	r23, r3
      8a:	73 05       	cpc	r23, r3
      8c:	73 05       	cpc	r23, r3
      8e:	73 05       	cpc	r23, r3
      90:	73 05       	cpc	r23, r3
      92:	73 05       	cpc	r23, r3
      94:	73 05       	cpc	r23, r3
      96:	73 05       	cpc	r23, r3
      98:	73 05       	cpc	r23, r3
      9a:	73 05       	cpc	r23, r3
      9c:	73 05       	cpc	r23, r3
      9e:	73 05       	cpc	r23, r3
      a0:	73 05       	cpc	r23, r3
      a2:	73 05       	cpc	r23, r3
      a4:	73 05       	cpc	r23, r3
      a6:	73 05       	cpc	r23, r3
      a8:	73 05       	cpc	r23, r3
      aa:	73 05       	cpc	r23, r3
      ac:	73 05       	cpc	r23, r3
      ae:	73 05       	cpc	r23, r3
      b0:	92 05       	cpc	r25, r2

000000b2 <__ctors_end>:
      b2:	11 24       	eor	r1, r1
      b4:	1f be       	out	0x3f, r1	; 63
      b6:	cf e5       	ldi	r28, 0x5F	; 95
      b8:	d8 e0       	ldi	r29, 0x08	; 8
      ba:	de bf       	out	0x3e, r29	; 62
      bc:	cd bf       	out	0x3d, r28	; 61

000000be <__do_copy_data>:
      be:	10 e0       	ldi	r17, 0x00	; 0
      c0:	a0 e6       	ldi	r26, 0x60	; 96
      c2:	b0 e0       	ldi	r27, 0x00	; 0
      c4:	ec e2       	ldi	r30, 0x2C	; 44
      c6:	f0 e1       	ldi	r31, 0x10	; 16
      c8:	02 c0       	rjmp	.+4      	; 0xce <__do_copy_data+0x10>
      ca:	05 90       	lpm	r0, Z+
      cc:	0d 92       	st	X+, r0
      ce:	a6 38       	cpi	r26, 0x86	; 134
      d0:	b1 07       	cpc	r27, r17
      d2:	d9 f7       	brne	.-10     	; 0xca <__do_copy_data+0xc>

000000d4 <__do_clear_bss>:
      d4:	20 e0       	ldi	r18, 0x00	; 0
      d6:	a6 e8       	ldi	r26, 0x86	; 134
      d8:	b0 e0       	ldi	r27, 0x00	; 0
      da:	01 c0       	rjmp	.+2      	; 0xde <.do_clear_bss_start>

000000dc <.do_clear_bss_loop>:
      dc:	1d 92       	st	X+, r1

000000de <.do_clear_bss_start>:
      de:	ae 38       	cpi	r26, 0x8E	; 142
      e0:	b2 07       	cpc	r27, r18
      e2:	e1 f7       	brne	.-8      	; 0xdc <.do_clear_bss_loop>
      e4:	0e 94 5d 05 	call	0xaba	; 0xaba <main>
      e8:	0c 94 14 08 	jmp	0x1028	; 0x1028 <_exit>

000000ec <__bad_interrupt>:
      ec:	0c 94 00 00 	jmp	0	; 0x0 <__vectors>

000000f0 <KEYPAD_Init>:
#include "KEYPAD.h"
#include <util/delay.h>

void KEYPAD_Init(void)
{
	DIO_voidSetPortDirection(KEYPAD_PORT, 0b00001111);
      f0:	6f e0       	ldi	r22, 0x0F	; 15
      f2:	80 e0       	ldi	r24, 0x00	; 0
      f4:	0e 94 f1 05 	call	0xbe2	; 0xbe2 <DIO_voidSetPortDirection>
	DIO_voidSetPortValue(KEYPAD_PORT, PORT_HIGH);
      f8:	6f ef       	ldi	r22, 0xFF	; 255
      fa:	80 e0       	ldi	r24, 0x00	; 0
      fc:	0e 94 03 06 	call	0xc06	; 0xc06 <DIO_voidSetPortValue>
     100:	08 95       	ret

00000102 <KEYPAD_GetPressedKey>:
}

u8 KEYPAD_GetPressedKey(void)
{	
     102:	cf 92       	push	r12
     104:	df 92       	push	r13
     106:	ef 92       	push	r14
     108:	ff 92       	push	r15
     10a:	0f 93       	push	r16
     10c:	1f 93       	push	r17
     10e:	cf 93       	push	r28
     110:	df 93       	push	r29
     112:	cd b7       	in	r28, 0x3d	; 61
     114:	de b7       	in	r29, 0x3e	; 62
     116:	a0 97       	sbiw	r28, 0x20	; 32
     118:	0f b6       	in	r0, 0x3f	; 63
     11a:	f8 94       	cli
     11c:	de bf       	out	0x3e, r29	; 62
     11e:	0f be       	out	0x3f, r0	; 63
     120:	cd bf       	out	0x3d, r28	; 61
	u8 KEYPAD_ARR[][4] =  {
     122:	80 e1       	ldi	r24, 0x10	; 16
     124:	e6 e6       	ldi	r30, 0x66	; 102
     126:	f0 e0       	ldi	r31, 0x00	; 0
     128:	de 01       	movw	r26, r28
     12a:	11 96       	adiw	r26, 0x01	; 1
     12c:	01 90       	ld	r0, Z+
     12e:	0d 92       	st	X+, r0
     130:	8a 95       	dec	r24
     132:	e1 f7       	brne	.-8      	; 0x12c <KEYPAD_GetPressedKey+0x2a>
		{'4','5','6','X'},
		{'1','2','3','-'},
		{'*','0','=','+'}
	};
	
	int arr_col_pins[] = {
     134:	88 e0       	ldi	r24, 0x08	; 8
     136:	e6 e7       	ldi	r30, 0x76	; 118
     138:	f0 e0       	ldi	r31, 0x00	; 0
     13a:	de 01       	movw	r26, r28
     13c:	51 96       	adiw	r26, 0x11	; 17
     13e:	01 90       	ld	r0, Z+
     140:	0d 92       	st	X+, r0
     142:	8a 95       	dec	r24
     144:	e1 f7       	brne	.-8      	; 0x13e <KEYPAD_GetPressedKey+0x3c>
		KEYPAD_C2_PIN,
		KEYPAD_C3_PIN,
		KEYPAD_C4_PIN
	};
	
	int arr_row_pins[] = {
     146:	88 e0       	ldi	r24, 0x08	; 8
     148:	ee e7       	ldi	r30, 0x7E	; 126
     14a:	f0 e0       	ldi	r31, 0x00	; 0
     14c:	de 01       	movw	r26, r28
     14e:	59 96       	adiw	r26, 0x19	; 25
     150:	01 90       	ld	r0, Z+
     152:	0d 92       	st	X+, r0
     154:	8a 95       	dec	r24
     156:	e1 f7       	brne	.-8      	; 0x150 <KEYPAD_GetPressedKey+0x4e>
		KEYPAD_R2_PIN,
		KEYPAD_R3_PIN,
		KEYPAD_R4_PIN
	};
	
	for (int i = 0; i < KEYPAD_NO_COL; i++)
     158:	e1 2c       	mov	r14, r1
     15a:	f1 2c       	mov	r15, r1
     15c:	4a c0       	rjmp	.+148    	; 0x1f2 <KEYPAD_GetPressedKey+0xf0>
	{
		DIO_voidSetPinValue(KEYPAD_PORT, arr_col_pins[i], PIN_LOW);
     15e:	f7 01       	movw	r30, r14
     160:	ee 0f       	add	r30, r30
     162:	ff 1f       	adc	r31, r31
     164:	81 e0       	ldi	r24, 0x01	; 1
     166:	90 e0       	ldi	r25, 0x00	; 0
     168:	8c 0f       	add	r24, r28
     16a:	9d 1f       	adc	r25, r29
     16c:	e8 0f       	add	r30, r24
     16e:	f9 1f       	adc	r31, r25
     170:	c0 88       	ldd	r12, Z+16	; 0x10
     172:	40 e0       	ldi	r20, 0x00	; 0
     174:	6c 2d       	mov	r22, r12
     176:	80 e0       	ldi	r24, 0x00	; 0
     178:	0e 94 15 06 	call	0xc2a	; 0xc2a <DIO_voidSetPinValue>
		
		for (int j = 0; j < KEYPAD_NO_ROW; j++)
     17c:	00 e0       	ldi	r16, 0x00	; 0
     17e:	10 e0       	ldi	r17, 0x00	; 0
     180:	2d c0       	rjmp	.+90     	; 0x1dc <KEYPAD_GetPressedKey+0xda>
		{
			if (DIO_u8GetPinValue(KEYPAD_PORT, arr_row_pins[j]) == PIN_LOW)
     182:	f8 01       	movw	r30, r16
     184:	ee 0f       	add	r30, r30
     186:	ff 1f       	adc	r31, r31
     188:	81 e0       	ldi	r24, 0x01	; 1
     18a:	90 e0       	ldi	r25, 0x00	; 0
     18c:	8c 0f       	add	r24, r28
     18e:	9d 1f       	adc	r25, r29
     190:	e8 0f       	add	r30, r24
     192:	f9 1f       	adc	r31, r25
     194:	d0 8c       	ldd	r13, Z+24	; 0x18
     196:	6d 2d       	mov	r22, r13
     198:	80 e0       	ldi	r24, 0x00	; 0
     19a:	0e 94 90 06 	call	0xd20	; 0xd20 <DIO_u8GetPinValue>
     19e:	81 11       	cpse	r24, r1
     1a0:	1b c0       	rjmp	.+54     	; 0x1d8 <KEYPAD_GetPressedKey+0xd6>
	#else
		//round up by default
		__ticks_dc = (uint32_t)(ceil(fabs(__tmp)));
	#endif

	__builtin_avr_delay_cycles(__ticks_dc);
     1a2:	8b e4       	ldi	r24, 0x4B	; 75
     1a4:	9d e1       	ldi	r25, 0x1D	; 29
     1a6:	01 97       	sbiw	r24, 0x01	; 1
     1a8:	f1 f7       	brne	.-4      	; 0x1a6 <KEYPAD_GetPressedKey+0xa4>
     1aa:	00 c0       	rjmp	.+0      	; 0x1ac <KEYPAD_GetPressedKey+0xaa>
     1ac:	00 00       	nop
			{
				_delay_ms(30);
				while (DIO_u8GetPinValue(KEYPAD_PORT, arr_row_pins[j]) == PIN_LOW) {}
     1ae:	6d 2d       	mov	r22, r13
     1b0:	80 e0       	ldi	r24, 0x00	; 0
     1b2:	0e 94 90 06 	call	0xd20	; 0xd20 <DIO_u8GetPinValue>
     1b6:	88 23       	and	r24, r24
     1b8:	d1 f3       	breq	.-12     	; 0x1ae <KEYPAD_GetPressedKey+0xac>
				
				return KEYPAD_ARR[j][i];
     1ba:	00 0f       	add	r16, r16
     1bc:	11 1f       	adc	r17, r17
     1be:	00 0f       	add	r16, r16
     1c0:	11 1f       	adc	r17, r17
     1c2:	81 e0       	ldi	r24, 0x01	; 1
     1c4:	90 e0       	ldi	r25, 0x00	; 0
     1c6:	8c 0f       	add	r24, r28
     1c8:	9d 1f       	adc	r25, r29
     1ca:	08 0f       	add	r16, r24
     1cc:	19 1f       	adc	r17, r25
     1ce:	f8 01       	movw	r30, r16
     1d0:	ee 0d       	add	r30, r14
     1d2:	ff 1d       	adc	r31, r15
     1d4:	80 81       	ld	r24, Z
     1d6:	13 c0       	rjmp	.+38     	; 0x1fe <KEYPAD_GetPressedKey+0xfc>
	
	for (int i = 0; i < KEYPAD_NO_COL; i++)
	{
		DIO_voidSetPinValue(KEYPAD_PORT, arr_col_pins[i], PIN_LOW);
		
		for (int j = 0; j < KEYPAD_NO_ROW; j++)
     1d8:	0f 5f       	subi	r16, 0xFF	; 255
     1da:	1f 4f       	sbci	r17, 0xFF	; 255
     1dc:	04 30       	cpi	r16, 0x04	; 4
     1de:	11 05       	cpc	r17, r1
     1e0:	84 f2       	brlt	.-96     	; 0x182 <KEYPAD_GetPressedKey+0x80>
				
				return KEYPAD_ARR[j][i];
			}
		}
		
		DIO_voidSetPinValue(KEYPAD_PORT, arr_col_pins[i], PIN_HIGH);
     1e2:	41 e0       	ldi	r20, 0x01	; 1
     1e4:	6c 2d       	mov	r22, r12
     1e6:	80 e0       	ldi	r24, 0x00	; 0
     1e8:	0e 94 15 06 	call	0xc2a	; 0xc2a <DIO_voidSetPinValue>
		KEYPAD_R2_PIN,
		KEYPAD_R3_PIN,
		KEYPAD_R4_PIN
	};
	
	for (int i = 0; i < KEYPAD_NO_COL; i++)
     1ec:	9f ef       	ldi	r25, 0xFF	; 255
     1ee:	e9 1a       	sub	r14, r25
     1f0:	f9 0a       	sbc	r15, r25
     1f2:	84 e0       	ldi	r24, 0x04	; 4
     1f4:	e8 16       	cp	r14, r24
     1f6:	f1 04       	cpc	r15, r1
     1f8:	0c f4       	brge	.+2      	; 0x1fc <KEYPAD_GetPressedKey+0xfa>
     1fa:	b1 cf       	rjmp	.-158    	; 0x15e <KEYPAD_GetPressedKey+0x5c>
		}
		
		DIO_voidSetPinValue(KEYPAD_PORT, arr_col_pins[i], PIN_HIGH);
	}
	
	return PORT_LOW;
     1fc:	80 e0       	ldi	r24, 0x00	; 0
     1fe:	a0 96       	adiw	r28, 0x20	; 32
     200:	0f b6       	in	r0, 0x3f	; 63
     202:	f8 94       	cli
     204:	de bf       	out	0x3e, r29	; 62
     206:	0f be       	out	0x3f, r0	; 63
     208:	cd bf       	out	0x3d, r28	; 61
     20a:	df 91       	pop	r29
     20c:	cf 91       	pop	r28
     20e:	1f 91       	pop	r17
     210:	0f 91       	pop	r16
     212:	ff 90       	pop	r15
     214:	ef 90       	pop	r14
     216:	df 90       	pop	r13
     218:	cf 90       	pop	r12
     21a:	08 95       	ret

0000021c <LCD_Command>:
	while (*Str)
	{
		LCD_Data(*Str);
		Str++;
	}
}
     21c:	cf 93       	push	r28
     21e:	c8 2f       	mov	r28, r24
     220:	41 e0       	ldi	r20, 0x01	; 1
     222:	62 e0       	ldi	r22, 0x02	; 2
     224:	82 e0       	ldi	r24, 0x02	; 2
     226:	0e 94 15 06 	call	0xc2a	; 0xc2a <DIO_voidSetPinValue>
     22a:	40 e0       	ldi	r20, 0x00	; 0
     22c:	60 e0       	ldi	r22, 0x00	; 0
     22e:	82 e0       	ldi	r24, 0x02	; 2
     230:	0e 94 15 06 	call	0xc2a	; 0xc2a <DIO_voidSetPinValue>
     234:	6c 2f       	mov	r22, r28
     236:	83 e0       	ldi	r24, 0x03	; 3
     238:	0e 94 03 06 	call	0xc06	; 0xc06 <DIO_voidSetPortValue>
     23c:	8d ee       	ldi	r24, 0xED	; 237
     23e:	92 e0       	ldi	r25, 0x02	; 2
     240:	01 97       	sbiw	r24, 0x01	; 1
     242:	f1 f7       	brne	.-4      	; 0x240 <LCD_Command+0x24>
     244:	00 c0       	rjmp	.+0      	; 0x246 <LCD_Command+0x2a>
     246:	00 00       	nop
     248:	40 e0       	ldi	r20, 0x00	; 0
     24a:	62 e0       	ldi	r22, 0x02	; 2
     24c:	82 e0       	ldi	r24, 0x02	; 2
     24e:	0e 94 15 06 	call	0xc2a	; 0xc2a <DIO_voidSetPinValue>
     252:	85 ea       	ldi	r24, 0xA5	; 165
     254:	9e e0       	ldi	r25, 0x0E	; 14
     256:	01 97       	sbiw	r24, 0x01	; 1
     258:	f1 f7       	brne	.-4      	; 0x256 <LCD_Command+0x3a>
     25a:	00 c0       	rjmp	.+0      	; 0x25c <LCD_Command+0x40>
     25c:	00 00       	nop
     25e:	cf 91       	pop	r28
     260:	08 95       	ret

00000262 <LCD_Data>:
     262:	cf 93       	push	r28
     264:	20 91 88 00 	lds	r18, 0x0088	; 0x800088 <columnME>
     268:	30 91 89 00 	lds	r19, 0x0089	; 0x800089 <columnME+0x1>
     26c:	28 32       	cpi	r18, 0x28	; 40
     26e:	31 05       	cpc	r19, r1
     270:	9c f5       	brge	.+102    	; 0x2d8 <LCD_Data+0x76>
     272:	c8 2f       	mov	r28, r24
     274:	41 e0       	ldi	r20, 0x01	; 1
     276:	60 e0       	ldi	r22, 0x00	; 0
     278:	82 e0       	ldi	r24, 0x02	; 2
     27a:	0e 94 15 06 	call	0xc2a	; 0xc2a <DIO_voidSetPinValue>
     27e:	41 e0       	ldi	r20, 0x01	; 1
     280:	62 e0       	ldi	r22, 0x02	; 2
     282:	82 e0       	ldi	r24, 0x02	; 2
     284:	0e 94 15 06 	call	0xc2a	; 0xc2a <DIO_voidSetPinValue>
     288:	6c 2f       	mov	r22, r28
     28a:	83 e0       	ldi	r24, 0x03	; 3
     28c:	0e 94 03 06 	call	0xc06	; 0xc06 <DIO_voidSetPortValue>
     290:	83 ef       	ldi	r24, 0xF3	; 243
     292:	91 e0       	ldi	r25, 0x01	; 1
     294:	01 97       	sbiw	r24, 0x01	; 1
     296:	f1 f7       	brne	.-4      	; 0x294 <LCD_Data+0x32>
     298:	00 c0       	rjmp	.+0      	; 0x29a <LCD_Data+0x38>
     29a:	00 00       	nop
     29c:	40 e0       	ldi	r20, 0x00	; 0
     29e:	62 e0       	ldi	r22, 0x02	; 2
     2a0:	82 e0       	ldi	r24, 0x02	; 2
     2a2:	0e 94 15 06 	call	0xc2a	; 0xc2a <DIO_voidSetPinValue>
     2a6:	80 91 88 00 	lds	r24, 0x0088	; 0x800088 <columnME>
     2aa:	90 91 89 00 	lds	r25, 0x0089	; 0x800089 <columnME+0x1>
     2ae:	01 96       	adiw	r24, 0x01	; 1
     2b0:	90 93 89 00 	sts	0x0089, r25	; 0x800089 <columnME+0x1>
     2b4:	80 93 88 00 	sts	0x0088, r24	; 0x800088 <columnME>
     2b8:	20 91 86 00 	lds	r18, 0x0086	; 0x800086 <__data_end>
     2bc:	30 91 87 00 	lds	r19, 0x0087	; 0x800087 <__data_end+0x1>
     2c0:	82 17       	cp	r24, r18
     2c2:	93 07       	cpc	r25, r19
     2c4:	1c f0       	brlt	.+6      	; 0x2cc <LCD_Data+0x6a>
     2c6:	88 e1       	ldi	r24, 0x18	; 24
     2c8:	0e 94 0e 01 	call	0x21c	; 0x21c <LCD_Command>
     2cc:	85 ea       	ldi	r24, 0xA5	; 165
     2ce:	9e e0       	ldi	r25, 0x0E	; 14
     2d0:	01 97       	sbiw	r24, 0x01	; 1
     2d2:	f1 f7       	brne	.-4      	; 0x2d0 <LCD_Data+0x6e>
     2d4:	00 c0       	rjmp	.+0      	; 0x2d6 <LCD_Data+0x74>
     2d6:	00 00       	nop
     2d8:	cf 91       	pop	r28
     2da:	08 95       	ret

000002dc <LCD_MoveCursor>:

void LCD_MoveCursor(u8 row, u8 col)
{
     2dc:	0f 93       	push	r16
     2de:	1f 93       	push	r17
     2e0:	cf 93       	push	r28
     2e2:	df 93       	push	r29
     2e4:	d8 2f       	mov	r29, r24
     2e6:	c6 2f       	mov	r28, r22
	columnME = col;
     2e8:	86 2f       	mov	r24, r22
     2ea:	90 e0       	ldi	r25, 0x00	; 0
     2ec:	90 93 89 00 	sts	0x0089, r25	; 0x800089 <columnME+0x1>
     2f0:	80 93 88 00 	sts	0x0088, r24	; 0x800088 <columnME>
	
	LCD_Command(LCD_HOME);
     2f4:	82 e0       	ldi	r24, 0x02	; 2
     2f6:	0e 94 0e 01 	call	0x21c	; 0x21c <LCD_Command>
	
	if (row == 0)
     2fa:	d1 11       	cpse	r29, r1
     2fc:	05 c0       	rjmp	.+10     	; 0x308 <LCD_MoveCursor+0x2c>
	{
		LCD_Command(0x80 + col);
     2fe:	80 e8       	ldi	r24, 0x80	; 128
     300:	8c 0f       	add	r24, r28
     302:	0e 94 0e 01 	call	0x21c	; 0x21c <LCD_Command>
     306:	04 c0       	rjmp	.+8      	; 0x310 <LCD_MoveCursor+0x34>
	}
	else
	{
		LCD_Command(0x80 + 0x40 + col);
     308:	80 ec       	ldi	r24, 0xC0	; 192
     30a:	8c 0f       	add	r24, r28
     30c:	0e 94 0e 01 	call	0x21c	; 0x21c <LCD_Command>
	}
	
	max_columnME = (columnME/16 + 1) * 16 - 1;
     310:	80 91 88 00 	lds	r24, 0x0088	; 0x800088 <columnME>
     314:	90 91 89 00 	lds	r25, 0x0089	; 0x800089 <columnME+0x1>
     318:	99 23       	and	r25, r25
     31a:	0c f4       	brge	.+2      	; 0x31e <LCD_MoveCursor+0x42>
     31c:	0f 96       	adiw	r24, 0x0f	; 15
     31e:	95 95       	asr	r25
     320:	87 95       	ror	r24
     322:	95 95       	asr	r25
     324:	87 95       	ror	r24
     326:	95 95       	asr	r25
     328:	87 95       	ror	r24
     32a:	95 95       	asr	r25
     32c:	87 95       	ror	r24
     32e:	01 96       	adiw	r24, 0x01	; 1
     330:	82 95       	swap	r24
     332:	92 95       	swap	r25
     334:	90 7f       	andi	r25, 0xF0	; 240
     336:	98 27       	eor	r25, r24
     338:	80 7f       	andi	r24, 0xF0	; 240
     33a:	98 27       	eor	r25, r24
     33c:	01 97       	sbiw	r24, 0x01	; 1
     33e:	90 93 87 00 	sts	0x0087, r25	; 0x800087 <__data_end+0x1>
     342:	80 93 86 00 	sts	0x0086, r24	; 0x800086 <__data_end>
	
	for (int i = 0; i < columnME/16; i++)
     346:	00 e0       	ldi	r16, 0x00	; 0
     348:	10 e0       	ldi	r17, 0x00	; 0
     34a:	0c c0       	rjmp	.+24     	; 0x364 <LCD_MoveCursor+0x88>
	{
		for (int j = 0; j < 16; j++)
		{
			LCD_Command(LCD_SHIFT_LEFT);
     34c:	88 e1       	ldi	r24, 0x18	; 24
     34e:	0e 94 0e 01 	call	0x21c	; 0x21c <LCD_Command>
	
	max_columnME = (columnME/16 + 1) * 16 - 1;
	
	for (int i = 0; i < columnME/16; i++)
	{
		for (int j = 0; j < 16; j++)
     352:	21 96       	adiw	r28, 0x01	; 1
     354:	02 c0       	rjmp	.+4      	; 0x35a <LCD_MoveCursor+0x7e>
     356:	c0 e0       	ldi	r28, 0x00	; 0
     358:	d0 e0       	ldi	r29, 0x00	; 0
     35a:	c0 31       	cpi	r28, 0x10	; 16
     35c:	d1 05       	cpc	r29, r1
     35e:	b4 f3       	brlt	.-20     	; 0x34c <LCD_MoveCursor+0x70>
		LCD_Command(0x80 + 0x40 + col);
	}
	
	max_columnME = (columnME/16 + 1) * 16 - 1;
	
	for (int i = 0; i < columnME/16; i++)
     360:	0f 5f       	subi	r16, 0xFF	; 255
     362:	1f 4f       	sbci	r17, 0xFF	; 255
     364:	80 91 88 00 	lds	r24, 0x0088	; 0x800088 <columnME>
     368:	90 91 89 00 	lds	r25, 0x0089	; 0x800089 <columnME+0x1>
     36c:	99 23       	and	r25, r25
     36e:	0c f4       	brge	.+2      	; 0x372 <LCD_MoveCursor+0x96>
     370:	0f 96       	adiw	r24, 0x0f	; 15
     372:	95 95       	asr	r25
     374:	87 95       	ror	r24
     376:	95 95       	asr	r25
     378:	87 95       	ror	r24
     37a:	95 95       	asr	r25
     37c:	87 95       	ror	r24
     37e:	95 95       	asr	r25
     380:	87 95       	ror	r24
     382:	08 17       	cp	r16, r24
     384:	19 07       	cpc	r17, r25
     386:	3c f3       	brlt	.-50     	; 0x356 <LCD_MoveCursor+0x7a>
		for (int j = 0; j < 16; j++)
		{
			LCD_Command(LCD_SHIFT_LEFT);
		}
	}
}
     388:	df 91       	pop	r29
     38a:	cf 91       	pop	r28
     38c:	1f 91       	pop	r17
     38e:	0f 91       	pop	r16
     390:	08 95       	ret

00000392 <LCD_ClearScreen>:
	}
}

void LCD_ClearScreen(void)
{
	LCD_Command(LCD_CLR);
     392:	81 e0       	ldi	r24, 0x01	; 1
     394:	0e 94 0e 01 	call	0x21c	; 0x21c <LCD_Command>
	LCD_MoveCursor(0, 0);
     398:	60 e0       	ldi	r22, 0x00	; 0
     39a:	80 e0       	ldi	r24, 0x00	; 0
     39c:	0e 94 6e 01 	call	0x2dc	; 0x2dc <LCD_MoveCursor>
     3a0:	08 95       	ret

000003a2 <LCD_Init>:
     3a2:	8b e4       	ldi	r24, 0x4B	; 75
     3a4:	9d e1       	ldi	r25, 0x1D	; 29
     3a6:	01 97       	sbiw	r24, 0x01	; 1
     3a8:	f1 f7       	brne	.-4      	; 0x3a6 <LCD_Init+0x4>
     3aa:	00 c0       	rjmp	.+0      	; 0x3ac <LCD_Init+0xa>
     3ac:	00 00       	nop
}

void LCD_Init(void)
{
	_delay_ms(30);
	DIO_voidSetPortDirection(LCD_CONTROL_PORT, 0b00000111);
     3ae:	67 e0       	ldi	r22, 0x07	; 7
     3b0:	82 e0       	ldi	r24, 0x02	; 2
     3b2:	0e 94 f1 05 	call	0xbe2	; 0xbe2 <DIO_voidSetPortDirection>
	DIO_voidSetPortDirection(LCD_DATA_PORT, PORT_HIGH);
     3b6:	6f ef       	ldi	r22, 0xFF	; 255
     3b8:	83 e0       	ldi	r24, 0x03	; 3
     3ba:	0e 94 f1 05 	call	0xbe2	; 0xbe2 <DIO_voidSetPortDirection>
	LCD_Command(LCD_HOME);
     3be:	82 e0       	ldi	r24, 0x02	; 2
     3c0:	0e 94 0e 01 	call	0x21c	; 0x21c <LCD_Command>
	LCD_Command(LCD_FUN_SET_TWOLINE_5x8);
     3c4:	88 e3       	ldi	r24, 0x38	; 56
     3c6:	0e 94 0e 01 	call	0x21c	; 0x21c <LCD_Command>
	LCD_Command(LCD_DIS_ON_SETUP);
     3ca:	8f e0       	ldi	r24, 0x0F	; 15
     3cc:	0e 94 0e 01 	call	0x21c	; 0x21c <LCD_Command>
	//LCD_Command(lcd_DisplayOn_CursorOn);
	LCD_ClearScreen();
     3d0:	0e 94 c9 01 	call	0x392	; 0x392 <LCD_ClearScreen>
	LCD_Command(LCD_EntryMode);
     3d4:	86 e0       	ldi	r24, 0x06	; 6
     3d6:	0e 94 0e 01 	call	0x21c	; 0x21c <LCD_Command>
	LCD_MoveCursor(0, 0);
     3da:	60 e0       	ldi	r22, 0x00	; 0
     3dc:	80 e0       	ldi	r24, 0x00	; 0
     3de:	0e 94 6e 01 	call	0x2dc	; 0x2dc <LCD_MoveCursor>
	columnME = 0;
     3e2:	10 92 89 00 	sts	0x0089, r1	; 0x800089 <columnME+0x1>
     3e6:	10 92 88 00 	sts	0x0088, r1	; 0x800088 <columnME>
	max_columnME = (columnME/16 + 1) * 16 - 1;
     3ea:	8f e0       	ldi	r24, 0x0F	; 15
     3ec:	90 e0       	ldi	r25, 0x00	; 0
     3ee:	90 93 87 00 	sts	0x0087, r25	; 0x800087 <__data_end+0x1>
     3f2:	80 93 86 00 	sts	0x0086, r24	; 0x800086 <__data_end>
     3f6:	08 95       	ret

000003f8 <powME>:
 */ 

#include "Calculator.h"

int powME(int base, int exponent)
{
     3f8:	ac 01       	movw	r20, r24
    int result = 1;

    for (int i = 0; i < exponent; i++)
     3fa:	20 e0       	ldi	r18, 0x00	; 0
     3fc:	30 e0       	ldi	r19, 0x00	; 0

#include "Calculator.h"

int powME(int base, int exponent)
{
    int result = 1;
     3fe:	81 e0       	ldi	r24, 0x01	; 1
     400:	90 e0       	ldi	r25, 0x00	; 0

    for (int i = 0; i < exponent; i++)
     402:	0a c0       	rjmp	.+20     	; 0x418 <__EEPROM_REGION_LENGTH__+0x18>
    {
        result *= base;
     404:	fc 01       	movw	r30, r24
     406:	e4 9f       	mul	r30, r20
     408:	c0 01       	movw	r24, r0
     40a:	e5 9f       	mul	r30, r21
     40c:	90 0d       	add	r25, r0
     40e:	f4 9f       	mul	r31, r20
     410:	90 0d       	add	r25, r0
     412:	11 24       	eor	r1, r1

int powME(int base, int exponent)
{
    int result = 1;

    for (int i = 0; i < exponent; i++)
     414:	2f 5f       	subi	r18, 0xFF	; 255
     416:	3f 4f       	sbci	r19, 0xFF	; 255
     418:	26 17       	cp	r18, r22
     41a:	37 07       	cpc	r19, r23
     41c:	9c f3       	brlt	.-26     	; 0x404 <__EEPROM_REGION_LENGTH__+0x4>
    {
        result *= base;
    }

    return result;
}
     41e:	08 95       	ret

00000420 <parse_int>:

int parse_int(Linkedlist* list)
{
     420:	cf 92       	push	r12
     422:	df 92       	push	r13
     424:	ef 92       	push	r14
     426:	ff 92       	push	r15
     428:	0f 93       	push	r16
     42a:	1f 93       	push	r17
     42c:	cf 93       	push	r28
     42e:	df 93       	push	r29
    Node* temp = list->head;
     430:	fc 01       	movw	r30, r24
     432:	e0 80       	ld	r14, Z
     434:	f1 80       	ldd	r15, Z+1	; 0x01
    int result = 0;

    for (int i = list->length - 1; i >= 0; i--)
     436:	c4 81       	ldd	r28, Z+4	; 0x04
     438:	d5 81       	ldd	r29, Z+5	; 0x05
     43a:	21 97       	sbiw	r28, 0x01	; 1
}

int parse_int(Linkedlist* list)
{
    Node* temp = list->head;
    int result = 0;
     43c:	c1 2c       	mov	r12, r1
     43e:	d1 2c       	mov	r13, r1

    for (int i = list->length - 1; i >= 0; i--)
     440:	18 c0       	rjmp	.+48     	; 0x472 <parse_int+0x52>
    {
        result += (temp->data - 48) * powME(10, i);
     442:	f7 01       	movw	r30, r14
     444:	00 81       	ld	r16, Z
     446:	11 81       	ldd	r17, Z+1	; 0x01
     448:	00 53       	subi	r16, 0x30	; 48
     44a:	11 09       	sbc	r17, r1
     44c:	be 01       	movw	r22, r28
     44e:	8a e0       	ldi	r24, 0x0A	; 10
     450:	90 e0       	ldi	r25, 0x00	; 0
     452:	0e 94 fc 01 	call	0x3f8	; 0x3f8 <powME>
     456:	9c 01       	movw	r18, r24
     458:	02 9f       	mul	r16, r18
     45a:	c0 01       	movw	r24, r0
     45c:	03 9f       	mul	r16, r19
     45e:	90 0d       	add	r25, r0
     460:	12 9f       	mul	r17, r18
     462:	90 0d       	add	r25, r0
     464:	11 24       	eor	r1, r1
     466:	c8 0e       	add	r12, r24
     468:	d9 1e       	adc	r13, r25
        temp = temp->next;
     46a:	f7 01       	movw	r30, r14
     46c:	e4 80       	ldd	r14, Z+4	; 0x04
     46e:	f5 80       	ldd	r15, Z+5	; 0x05
int parse_int(Linkedlist* list)
{
    Node* temp = list->head;
    int result = 0;

    for (int i = list->length - 1; i >= 0; i--)
     470:	21 97       	sbiw	r28, 0x01	; 1
     472:	dd 23       	and	r29, r29
     474:	34 f7       	brge	.-52     	; 0x442 <parse_int+0x22>
        result += (temp->data - 48) * powME(10, i);
        temp = temp->next;
    }

    return result;
}
     476:	c6 01       	movw	r24, r12
     478:	df 91       	pop	r29
     47a:	cf 91       	pop	r28
     47c:	1f 91       	pop	r17
     47e:	0f 91       	pop	r16
     480:	ff 90       	pop	r15
     482:	ef 90       	pop	r14
     484:	df 90       	pop	r13
     486:	cf 90       	pop	r12
     488:	08 95       	ret

0000048a <handle_order_2>:

int handle_order_2(Linkedlist* list)
{
     48a:	cf 92       	push	r12
     48c:	df 92       	push	r13
     48e:	ef 92       	push	r14
     490:	ff 92       	push	r15
     492:	0f 93       	push	r16
     494:	1f 93       	push	r17
     496:	cf 93       	push	r28
     498:	df 93       	push	r29
     49a:	8c 01       	movw	r16, r24
    Node* temp = list->head;
     49c:	dc 01       	movw	r26, r24
     49e:	cd 91       	ld	r28, X+
     4a0:	dc 91       	ld	r29, X
    Node* extra = 0;
    Node* del_ptr1 = 0;
    Node* del_ptr2 = 0;

    while (temp->next != 0)
     4a2:	b4 c0       	rjmp	.+360    	; 0x60c <handle_order_2+0x182>
    {
        if (temp->next->next->data == '-')
     4a4:	04 80       	ldd	r0, Z+4	; 0x04
     4a6:	f5 81       	ldd	r31, Z+5	; 0x05
     4a8:	e0 2d       	mov	r30, r0
     4aa:	80 81       	ld	r24, Z
     4ac:	91 81       	ldd	r25, Z+1	; 0x01
     4ae:	8d 97       	sbiw	r24, 0x2d	; 45
     4b0:	91 f4       	brne	.+36     	; 0x4d6 <handle_order_2+0x4c>
        {
            temp->next->next->next->data = -temp->next->next->next->data;
     4b2:	04 80       	ldd	r0, Z+4	; 0x04
     4b4:	f5 81       	ldd	r31, Z+5	; 0x05
     4b6:	e0 2d       	mov	r30, r0
     4b8:	80 81       	ld	r24, Z
     4ba:	91 81       	ldd	r25, Z+1	; 0x01
     4bc:	91 95       	neg	r25
     4be:	81 95       	neg	r24
     4c0:	91 09       	sbc	r25, r1
     4c2:	91 83       	std	Z+1, r25	; 0x01
     4c4:	80 83       	st	Z, r24
            del_ptr1 = temp->next->next;
     4c6:	6c 81       	ldd	r22, Y+4	; 0x04
     4c8:	7d 81       	ldd	r23, Y+5	; 0x05
     4ca:	fb 01       	movw	r30, r22
     4cc:	44 81       	ldd	r20, Z+4	; 0x04
     4ce:	55 81       	ldd	r21, Z+5	; 0x05
            del_with_ptr(list, temp->next, del_ptr1);
     4d0:	c8 01       	movw	r24, r16
     4d2:	0e 94 b5 04 	call	0x96a	; 0x96a <del_with_ptr>
        }

        if (temp->next->data == 'X')
     4d6:	ec 81       	ldd	r30, Y+4	; 0x04
     4d8:	fd 81       	ldd	r31, Y+5	; 0x05
     4da:	80 81       	ld	r24, Z
     4dc:	91 81       	ldd	r25, Z+1	; 0x01
     4de:	88 35       	cpi	r24, 0x58	; 88
     4e0:	91 05       	cpc	r25, r1
     4e2:	e1 f4       	brne	.+56     	; 0x51c <handle_order_2+0x92>
        {
            temp->data = temp->data * temp->next->next->data;
     4e4:	48 81       	ld	r20, Y
     4e6:	59 81       	ldd	r21, Y+1	; 0x01
     4e8:	a4 81       	ldd	r26, Z+4	; 0x04
     4ea:	b5 81       	ldd	r27, Z+5	; 0x05
     4ec:	2d 91       	ld	r18, X+
     4ee:	3c 91       	ld	r19, X
     4f0:	42 9f       	mul	r20, r18
     4f2:	c0 01       	movw	r24, r0
     4f4:	43 9f       	mul	r20, r19
     4f6:	90 0d       	add	r25, r0
     4f8:	52 9f       	mul	r21, r18
     4fa:	90 0d       	add	r25, r0
     4fc:	11 24       	eor	r1, r1
     4fe:	99 83       	std	Y+1, r25	; 0x01
     500:	88 83       	st	Y, r24
            del_ptr1 = temp->next;
            del_ptr2 = temp->next->next;
     502:	e4 80       	ldd	r14, Z+4	; 0x04
     504:	f5 80       	ldd	r15, Z+5	; 0x05
            del_with_ptr(list, temp, del_ptr1);
     506:	af 01       	movw	r20, r30
     508:	be 01       	movw	r22, r28
     50a:	c8 01       	movw	r24, r16
     50c:	0e 94 b5 04 	call	0x96a	; 0x96a <del_with_ptr>
            del_with_ptr(list, temp, del_ptr2);
     510:	a7 01       	movw	r20, r14
     512:	be 01       	movw	r22, r28
     514:	c8 01       	movw	r24, r16
     516:	0e 94 b5 04 	call	0x96a	; 0x96a <del_with_ptr>
     51a:	78 c0       	rjmp	.+240    	; 0x60c <handle_order_2+0x182>
        }
        else if (temp->next->data == '/')
     51c:	8f 32       	cpi	r24, 0x2F	; 47
     51e:	91 05       	cpc	r25, r1
     520:	09 f0       	breq	.+2      	; 0x524 <handle_order_2+0x9a>
     522:	69 c0       	rjmp	.+210    	; 0x5f6 <handle_order_2+0x16c>
        {
            if (temp->next->next->next != 0)
     524:	e4 80       	ldd	r14, Z+4	; 0x04
     526:	f5 80       	ldd	r15, Z+5	; 0x05
     528:	d7 01       	movw	r26, r14
     52a:	14 96       	adiw	r26, 0x04	; 4
     52c:	ed 91       	ld	r30, X+
     52e:	fc 91       	ld	r31, X
     530:	15 97       	sbiw	r26, 0x05	; 5
     532:	30 97       	sbiw	r30, 0x00	; 0
     534:	09 f4       	brne	.+2      	; 0x538 <handle_order_2+0xae>
     536:	46 c0       	rjmp	.+140    	; 0x5c4 <handle_order_2+0x13a>
            {
                if (temp->next->next->next->data == 'X')
     538:	80 81       	ld	r24, Z
     53a:	91 81       	ldd	r25, Z+1	; 0x01
     53c:	88 35       	cpi	r24, 0x58	; 88
     53e:	91 05       	cpc	r25, r1
     540:	09 f0       	breq	.+2      	; 0x544 <handle_order_2+0xba>
     542:	40 c0       	rjmp	.+128    	; 0x5c4 <handle_order_2+0x13a>
                {
                    extra = temp->next->next;

                    if (extra->next->next->data == '-')
     544:	04 80       	ldd	r0, Z+4	; 0x04
     546:	f5 81       	ldd	r31, Z+5	; 0x05
     548:	e0 2d       	mov	r30, r0
     54a:	80 81       	ld	r24, Z
     54c:	91 81       	ldd	r25, Z+1	; 0x01
     54e:	8d 97       	sbiw	r24, 0x2d	; 45
     550:	a1 f4       	brne	.+40     	; 0x57a <handle_order_2+0xf0>
                    {
                        extra->next->next->next->data = -extra->next->next->next->data;
     552:	04 80       	ldd	r0, Z+4	; 0x04
     554:	f5 81       	ldd	r31, Z+5	; 0x05
     556:	e0 2d       	mov	r30, r0
     558:	80 81       	ld	r24, Z
     55a:	91 81       	ldd	r25, Z+1	; 0x01
     55c:	91 95       	neg	r25
     55e:	81 95       	neg	r24
     560:	91 09       	sbc	r25, r1
     562:	91 83       	std	Z+1, r25	; 0x01
     564:	80 83       	st	Z, r24
                        del_ptr1 = extra->next->next;
     566:	14 96       	adiw	r26, 0x04	; 4
     568:	6d 91       	ld	r22, X+
     56a:	7c 91       	ld	r23, X
     56c:	15 97       	sbiw	r26, 0x05	; 5
     56e:	fb 01       	movw	r30, r22
     570:	44 81       	ldd	r20, Z+4	; 0x04
     572:	55 81       	ldd	r21, Z+5	; 0x05
                        del_with_ptr(list, extra->next, del_ptr1);
     574:	c8 01       	movw	r24, r16
     576:	0e 94 b5 04 	call	0x96a	; 0x96a <del_with_ptr>
                    }

                    temp->data = temp->data * extra->next->next->data;
     57a:	48 81       	ld	r20, Y
     57c:	59 81       	ldd	r21, Y+1	; 0x01
     57e:	d7 01       	movw	r26, r14
     580:	14 96       	adiw	r26, 0x04	; 4
     582:	ed 91       	ld	r30, X+
     584:	fc 91       	ld	r31, X
     586:	15 97       	sbiw	r26, 0x05	; 5
     588:	04 80       	ldd	r0, Z+4	; 0x04
     58a:	f5 81       	ldd	r31, Z+5	; 0x05
     58c:	e0 2d       	mov	r30, r0
     58e:	20 81       	ld	r18, Z
     590:	31 81       	ldd	r19, Z+1	; 0x01
     592:	42 9f       	mul	r20, r18
     594:	c0 01       	movw	r24, r0
     596:	43 9f       	mul	r20, r19
     598:	90 0d       	add	r25, r0
     59a:	52 9f       	mul	r21, r18
     59c:	90 0d       	add	r25, r0
     59e:	11 24       	eor	r1, r1
     5a0:	99 83       	std	Y+1, r25	; 0x01
     5a2:	88 83       	st	Y, r24
                    del_ptr1 = extra->next;
     5a4:	14 96       	adiw	r26, 0x04	; 4
     5a6:	4d 91       	ld	r20, X+
     5a8:	5c 91       	ld	r21, X
     5aa:	15 97       	sbiw	r26, 0x05	; 5
                    del_ptr2 = extra->next->next;
     5ac:	fa 01       	movw	r30, r20
     5ae:	c4 80       	ldd	r12, Z+4	; 0x04
     5b0:	d5 80       	ldd	r13, Z+5	; 0x05
                    del_with_ptr(list, extra, del_ptr1);
     5b2:	b7 01       	movw	r22, r14
     5b4:	c8 01       	movw	r24, r16
     5b6:	0e 94 b5 04 	call	0x96a	; 0x96a <del_with_ptr>
                    del_with_ptr(list, extra, del_ptr2);
     5ba:	a6 01       	movw	r20, r12
     5bc:	b7 01       	movw	r22, r14
     5be:	c8 01       	movw	r24, r16
     5c0:	0e 94 b5 04 	call	0x96a	; 0x96a <del_with_ptr>
                }
            }
            temp->data = temp->data / temp->next->next->data;
     5c4:	88 81       	ld	r24, Y
     5c6:	99 81       	ldd	r25, Y+1	; 0x01
     5c8:	ec 81       	ldd	r30, Y+4	; 0x04
     5ca:	fd 81       	ldd	r31, Y+5	; 0x05
     5cc:	a4 81       	ldd	r26, Z+4	; 0x04
     5ce:	b5 81       	ldd	r27, Z+5	; 0x05
     5d0:	6d 91       	ld	r22, X+
     5d2:	7c 91       	ld	r23, X
     5d4:	0e 94 c5 06 	call	0xd8a	; 0xd8a <__divmodhi4>
     5d8:	79 83       	std	Y+1, r23	; 0x01
     5da:	68 83       	st	Y, r22
            del_ptr1 = temp->next;
            del_ptr2 = temp->next->next;
     5dc:	e4 80       	ldd	r14, Z+4	; 0x04
     5de:	f5 80       	ldd	r15, Z+5	; 0x05
            del_with_ptr(list, temp, del_ptr1);
     5e0:	af 01       	movw	r20, r30
     5e2:	be 01       	movw	r22, r28
     5e4:	c8 01       	movw	r24, r16
     5e6:	0e 94 b5 04 	call	0x96a	; 0x96a <del_with_ptr>
            del_with_ptr(list, temp, del_ptr2);
     5ea:	a7 01       	movw	r20, r14
     5ec:	be 01       	movw	r22, r28
     5ee:	c8 01       	movw	r24, r16
     5f0:	0e 94 b5 04 	call	0x96a	; 0x96a <del_with_ptr>
     5f4:	0b c0       	rjmp	.+22     	; 0x60c <handle_order_2+0x182>
        }
        else if (temp->next->data == '-' || temp->next->data == '+')
     5f6:	8d 32       	cpi	r24, 0x2D	; 45
     5f8:	91 05       	cpc	r25, r1
     5fa:	11 f0       	breq	.+4      	; 0x600 <handle_order_2+0x176>
     5fc:	8b 97       	sbiw	r24, 0x2b	; 43
     5fe:	19 f4       	brne	.+6      	; 0x606 <handle_order_2+0x17c>
        {
            temp = temp->next->next;
     600:	c4 81       	ldd	r28, Z+4	; 0x04
     602:	d5 81       	ldd	r29, Z+5	; 0x05
            continue;
     604:	03 c0       	rjmp	.+6      	; 0x60c <handle_order_2+0x182>
        }
        else
        {
            return -1;
     606:	8f ef       	ldi	r24, 0xFF	; 255
     608:	9f ef       	ldi	r25, 0xFF	; 255
     60a:	05 c0       	rjmp	.+10     	; 0x616 <handle_order_2+0x18c>
    Node* temp = list->head;
    Node* extra = 0;
    Node* del_ptr1 = 0;
    Node* del_ptr2 = 0;

    while (temp->next != 0)
     60c:	ec 81       	ldd	r30, Y+4	; 0x04
     60e:	fd 81       	ldd	r31, Y+5	; 0x05
     610:	30 97       	sbiw	r30, 0x00	; 0
     612:	09 f0       	breq	.+2      	; 0x616 <handle_order_2+0x18c>
     614:	47 cf       	rjmp	.-370    	; 0x4a4 <handle_order_2+0x1a>
        else
        {
            return -1;
        }
    }
}
     616:	df 91       	pop	r29
     618:	cf 91       	pop	r28
     61a:	1f 91       	pop	r17
     61c:	0f 91       	pop	r16
     61e:	ff 90       	pop	r15
     620:	ef 90       	pop	r14
     622:	df 90       	pop	r13
     624:	cf 90       	pop	r12
     626:	08 95       	ret

00000628 <handle_order_1>:

int handle_order_1(Linkedlist* list)
{
     628:	ef 92       	push	r14
     62a:	ff 92       	push	r15
     62c:	0f 93       	push	r16
     62e:	1f 93       	push	r17
     630:	cf 93       	push	r28
     632:	df 93       	push	r29
     634:	8c 01       	movw	r16, r24
    Node* temp = list->head;
     636:	fc 01       	movw	r30, r24
     638:	c0 81       	ld	r28, Z
     63a:	d1 81       	ldd	r29, Z+1	; 0x01
    Node* del_ptr1 = 0;
    Node* del_ptr2 = 0;

    while (temp->next != 0)
     63c:	53 c0       	rjmp	.+166    	; 0x6e4 <handle_order_1+0xbc>
    {
        if (temp->next->next->data == '-')
     63e:	04 80       	ldd	r0, Z+4	; 0x04
     640:	f5 81       	ldd	r31, Z+5	; 0x05
     642:	e0 2d       	mov	r30, r0
     644:	80 81       	ld	r24, Z
     646:	91 81       	ldd	r25, Z+1	; 0x01
     648:	8d 97       	sbiw	r24, 0x2d	; 45
     64a:	91 f4       	brne	.+36     	; 0x670 <handle_order_1+0x48>
        {
            temp->next->next->next->data = -temp->next->next->next->data;
     64c:	04 80       	ldd	r0, Z+4	; 0x04
     64e:	f5 81       	ldd	r31, Z+5	; 0x05
     650:	e0 2d       	mov	r30, r0
     652:	80 81       	ld	r24, Z
     654:	91 81       	ldd	r25, Z+1	; 0x01
     656:	91 95       	neg	r25
     658:	81 95       	neg	r24
     65a:	91 09       	sbc	r25, r1
     65c:	91 83       	std	Z+1, r25	; 0x01
     65e:	80 83       	st	Z, r24
            del_ptr1 = temp->next->next;
     660:	6c 81       	ldd	r22, Y+4	; 0x04
     662:	7d 81       	ldd	r23, Y+5	; 0x05
     664:	fb 01       	movw	r30, r22
     666:	44 81       	ldd	r20, Z+4	; 0x04
     668:	55 81       	ldd	r21, Z+5	; 0x05
            del_with_ptr(list, temp->next,del_ptr1);
     66a:	c8 01       	movw	r24, r16
     66c:	0e 94 b5 04 	call	0x96a	; 0x96a <del_with_ptr>
        }

        if (temp->next->data == '+')
     670:	ec 81       	ldd	r30, Y+4	; 0x04
     672:	fd 81       	ldd	r31, Y+5	; 0x05
     674:	80 81       	ld	r24, Z
     676:	91 81       	ldd	r25, Z+1	; 0x01
     678:	8b 32       	cpi	r24, 0x2B	; 43
     67a:	91 05       	cpc	r25, r1
     67c:	b9 f4       	brne	.+46     	; 0x6ac <handle_order_1+0x84>
        {
            temp->data = temp->data + temp->next->next->data;
     67e:	28 81       	ld	r18, Y
     680:	39 81       	ldd	r19, Y+1	; 0x01
     682:	a4 81       	ldd	r26, Z+4	; 0x04
     684:	b5 81       	ldd	r27, Z+5	; 0x05
     686:	8d 91       	ld	r24, X+
     688:	9c 91       	ld	r25, X
     68a:	82 0f       	add	r24, r18
     68c:	93 1f       	adc	r25, r19
     68e:	99 83       	std	Y+1, r25	; 0x01
     690:	88 83       	st	Y, r24
            del_ptr1 = temp->next;
            del_ptr2 = temp->next->next;
     692:	e4 80       	ldd	r14, Z+4	; 0x04
     694:	f5 80       	ldd	r15, Z+5	; 0x05
            del_with_ptr(list, temp, del_ptr1);
     696:	af 01       	movw	r20, r30
     698:	be 01       	movw	r22, r28
     69a:	c8 01       	movw	r24, r16
     69c:	0e 94 b5 04 	call	0x96a	; 0x96a <del_with_ptr>
            del_with_ptr(list, temp, del_ptr2);
     6a0:	a7 01       	movw	r20, r14
     6a2:	be 01       	movw	r22, r28
     6a4:	c8 01       	movw	r24, r16
     6a6:	0e 94 b5 04 	call	0x96a	; 0x96a <del_with_ptr>
     6aa:	1c c0       	rjmp	.+56     	; 0x6e4 <handle_order_1+0xbc>
        }
        else if (temp->next->data == '-')
     6ac:	8d 97       	sbiw	r24, 0x2d	; 45
     6ae:	b9 f4       	brne	.+46     	; 0x6de <handle_order_1+0xb6>
        {
            temp->data = temp->data - temp->next->next->data;
     6b0:	88 81       	ld	r24, Y
     6b2:	99 81       	ldd	r25, Y+1	; 0x01
     6b4:	a4 81       	ldd	r26, Z+4	; 0x04
     6b6:	b5 81       	ldd	r27, Z+5	; 0x05
     6b8:	2d 91       	ld	r18, X+
     6ba:	3c 91       	ld	r19, X
     6bc:	82 1b       	sub	r24, r18
     6be:	93 0b       	sbc	r25, r19
     6c0:	99 83       	std	Y+1, r25	; 0x01
     6c2:	88 83       	st	Y, r24
            del_ptr1 = temp->next;
            del_ptr2 = temp->next->next;
     6c4:	e4 80       	ldd	r14, Z+4	; 0x04
     6c6:	f5 80       	ldd	r15, Z+5	; 0x05
            del_with_ptr(list, temp, del_ptr1);
     6c8:	af 01       	movw	r20, r30
     6ca:	be 01       	movw	r22, r28
     6cc:	c8 01       	movw	r24, r16
     6ce:	0e 94 b5 04 	call	0x96a	; 0x96a <del_with_ptr>
            del_with_ptr(list, temp, del_ptr2);
     6d2:	a7 01       	movw	r20, r14
     6d4:	be 01       	movw	r22, r28
     6d6:	c8 01       	movw	r24, r16
     6d8:	0e 94 b5 04 	call	0x96a	; 0x96a <del_with_ptr>
     6dc:	03 c0       	rjmp	.+6      	; 0x6e4 <handle_order_1+0xbc>
        }
        else
        {
            return -1;
     6de:	8f ef       	ldi	r24, 0xFF	; 255
     6e0:	9f ef       	ldi	r25, 0xFF	; 255
     6e2:	05 c0       	rjmp	.+10     	; 0x6ee <handle_order_1+0xc6>
{
    Node* temp = list->head;
    Node* del_ptr1 = 0;
    Node* del_ptr2 = 0;

    while (temp->next != 0)
     6e4:	ec 81       	ldd	r30, Y+4	; 0x04
     6e6:	fd 81       	ldd	r31, Y+5	; 0x05
     6e8:	30 97       	sbiw	r30, 0x00	; 0
     6ea:	09 f0       	breq	.+2      	; 0x6ee <handle_order_1+0xc6>
     6ec:	a8 cf       	rjmp	.-176    	; 0x63e <handle_order_1+0x16>
        else
        {
            return -1;
        }
    }
}
     6ee:	df 91       	pop	r29
     6f0:	cf 91       	pop	r28
     6f2:	1f 91       	pop	r17
     6f4:	0f 91       	pop	r16
     6f6:	ff 90       	pop	r15
     6f8:	ef 90       	pop	r14
     6fa:	08 95       	ret

000006fc <calculate>:

int calculate(Linkedlist* list)
{
     6fc:	cf 93       	push	r28
     6fe:	df 93       	push	r29
     700:	ec 01       	movw	r28, r24
	if (list->head->data == '-')
     702:	e8 81       	ld	r30, Y
     704:	f9 81       	ldd	r31, Y+1	; 0x01
     706:	80 81       	ld	r24, Z
     708:	91 81       	ldd	r25, Z+1	; 0x01
     70a:	8d 97       	sbiw	r24, 0x2d	; 45
     70c:	69 f4       	brne	.+26     	; 0x728 <calculate+0x2c>
	{
		list->head->next->data = -list->head->next->data;
     70e:	04 80       	ldd	r0, Z+4	; 0x04
     710:	f5 81       	ldd	r31, Z+5	; 0x05
     712:	e0 2d       	mov	r30, r0
     714:	80 81       	ld	r24, Z
     716:	91 81       	ldd	r25, Z+1	; 0x01
     718:	91 95       	neg	r25
     71a:	81 95       	neg	r24
     71c:	91 09       	sbc	r25, r1
     71e:	91 83       	std	Z+1, r25	; 0x01
     720:	80 83       	st	Z, r24
		del_first(list);
     722:	ce 01       	movw	r24, r28
     724:	0e 94 35 04 	call	0x86a	; 0x86a <del_first>
	}
    if (list->length > 1 && list->length < 3)
     728:	8c 81       	ldd	r24, Y+4	; 0x04
     72a:	9d 81       	ldd	r25, Y+5	; 0x05
     72c:	02 97       	sbiw	r24, 0x02	; 2
     72e:	11 f1       	breq	.+68     	; 0x774 <calculate+0x78>
    {
        return -1;
    }

    handle_order_2(list);
     730:	ce 01       	movw	r24, r28
     732:	0e 94 45 02 	call	0x48a	; 0x48a <handle_order_2>

    if (list->head->data == '-')
     736:	e8 81       	ld	r30, Y
     738:	f9 81       	ldd	r31, Y+1	; 0x01
     73a:	80 81       	ld	r24, Z
     73c:	91 81       	ldd	r25, Z+1	; 0x01
     73e:	8d 97       	sbiw	r24, 0x2d	; 45
     740:	69 f4       	brne	.+26     	; 0x75c <calculate+0x60>
    {
        list->head->next->data = -list->head->next->data;
     742:	04 80       	ldd	r0, Z+4	; 0x04
     744:	f5 81       	ldd	r31, Z+5	; 0x05
     746:	e0 2d       	mov	r30, r0
     748:	80 81       	ld	r24, Z
     74a:	91 81       	ldd	r25, Z+1	; 0x01
     74c:	91 95       	neg	r25
     74e:	81 95       	neg	r24
     750:	91 09       	sbc	r25, r1
     752:	91 83       	std	Z+1, r25	; 0x01
     754:	80 83       	st	Z, r24
        del_first(list);
     756:	ce 01       	movw	r24, r28
     758:	0e 94 35 04 	call	0x86a	; 0x86a <del_first>
	}
    if (list->length > 1 && list->length < 3)
     75c:	8c 81       	ldd	r24, Y+4	; 0x04
     75e:	9d 81       	ldd	r25, Y+5	; 0x05
     760:	02 97       	sbiw	r24, 0x02	; 2
     762:	59 f0       	breq	.+22     	; 0x77a <calculate+0x7e>
    {
        return -1;
    }

    handle_order_1(list);
     764:	ce 01       	movw	r24, r28
     766:	0e 94 14 03 	call	0x628	; 0x628 <handle_order_1>

    return list->head->data;
     76a:	e8 81       	ld	r30, Y
     76c:	f9 81       	ldd	r31, Y+1	; 0x01
     76e:	80 81       	ld	r24, Z
     770:	91 81       	ldd	r25, Z+1	; 0x01
     772:	05 c0       	rjmp	.+10     	; 0x77e <calculate+0x82>
		list->head->next->data = -list->head->next->data;
		del_first(list);
	}
    if (list->length > 1 && list->length < 3)
    {
        return -1;
     774:	8f ef       	ldi	r24, 0xFF	; 255
     776:	9f ef       	ldi	r25, 0xFF	; 255
     778:	02 c0       	rjmp	.+4      	; 0x77e <calculate+0x82>
        list->head->next->data = -list->head->next->data;
        del_first(list);
	}
    if (list->length > 1 && list->length < 3)
    {
        return -1;
     77a:	8f ef       	ldi	r24, 0xFF	; 255
     77c:	9f ef       	ldi	r25, 0xFF	; 255
    }

    handle_order_1(list);

    return list->head->data;
     77e:	df 91       	pop	r29
     780:	cf 91       	pop	r28
     782:	08 95       	ret

00000784 <Linkedlist_constructor>:
	this->tail = temp;

	this->length--;

	return 0;
}
     784:	fc 01       	movw	r30, r24
     786:	11 82       	std	Z+1, r1	; 0x01
     788:	10 82       	st	Z, r1
     78a:	13 82       	std	Z+3, r1	; 0x03
     78c:	12 82       	std	Z+2, r1	; 0x02
     78e:	15 82       	std	Z+5, r1	; 0x05
     790:	14 82       	std	Z+4, r1	; 0x04
     792:	08 95       	ret

00000794 <is_empty>:
     794:	fc 01       	movw	r30, r24
     796:	20 81       	ld	r18, Z
     798:	31 81       	ldd	r19, Z+1	; 0x01
     79a:	81 e0       	ldi	r24, 0x01	; 1
     79c:	23 2b       	or	r18, r19
     79e:	09 f0       	breq	.+2      	; 0x7a2 <is_empty+0xe>
     7a0:	80 e0       	ldi	r24, 0x00	; 0
     7a2:	90 e0       	ldi	r25, 0x00	; 0
     7a4:	08 95       	ret

000007a6 <insert_first>:
     7a6:	ef 92       	push	r14
     7a8:	ff 92       	push	r15
     7aa:	0f 93       	push	r16
     7ac:	1f 93       	push	r17
     7ae:	cf 93       	push	r28
     7b0:	df 93       	push	r29
     7b2:	ec 01       	movw	r28, r24
     7b4:	7b 01       	movw	r14, r22
     7b6:	8a 01       	movw	r16, r20
     7b8:	86 e0       	ldi	r24, 0x06	; 6
     7ba:	90 e0       	ldi	r25, 0x00	; 0
     7bc:	0e 94 f3 06 	call	0xde6	; 0xde6 <malloc>
     7c0:	fc 01       	movw	r30, r24
     7c2:	f1 82       	std	Z+1, r15	; 0x01
     7c4:	e0 82       	st	Z, r14
     7c6:	13 83       	std	Z+3, r17	; 0x03
     7c8:	02 83       	std	Z+2, r16	; 0x02
     7ca:	88 81       	ld	r24, Y
     7cc:	99 81       	ldd	r25, Y+1	; 0x01
     7ce:	95 83       	std	Z+5, r25	; 0x05
     7d0:	84 83       	std	Z+4, r24	; 0x04
     7d2:	89 2b       	or	r24, r25
     7d4:	11 f4       	brne	.+4      	; 0x7da <insert_first+0x34>
     7d6:	fb 83       	std	Y+3, r31	; 0x03
     7d8:	ea 83       	std	Y+2, r30	; 0x02
     7da:	f9 83       	std	Y+1, r31	; 0x01
     7dc:	e8 83       	st	Y, r30
     7de:	8c 81       	ldd	r24, Y+4	; 0x04
     7e0:	9d 81       	ldd	r25, Y+5	; 0x05
     7e2:	01 96       	adiw	r24, 0x01	; 1
     7e4:	9d 83       	std	Y+5, r25	; 0x05
     7e6:	8c 83       	std	Y+4, r24	; 0x04
     7e8:	df 91       	pop	r29
     7ea:	cf 91       	pop	r28
     7ec:	1f 91       	pop	r17
     7ee:	0f 91       	pop	r16
     7f0:	ff 90       	pop	r15
     7f2:	ef 90       	pop	r14
     7f4:	08 95       	ret

000007f6 <append>:
     7f6:	cf 92       	push	r12
     7f8:	df 92       	push	r13
     7fa:	ef 92       	push	r14
     7fc:	ff 92       	push	r15
     7fe:	0f 93       	push	r16
     800:	1f 93       	push	r17
     802:	cf 93       	push	r28
     804:	df 93       	push	r29
     806:	ec 01       	movw	r28, r24
     808:	6b 01       	movw	r12, r22
     80a:	7a 01       	movw	r14, r20
     80c:	0e 94 ca 03 	call	0x794	; 0x794 <is_empty>
     810:	8c 01       	movw	r16, r24
     812:	89 2b       	or	r24, r25
     814:	41 f0       	breq	.+16     	; 0x826 <__DATA_REGION_LENGTH__+0x26>
     816:	a7 01       	movw	r20, r14
     818:	b6 01       	movw	r22, r12
     81a:	ce 01       	movw	r24, r28
     81c:	0e 94 d3 03 	call	0x7a6	; 0x7a6 <insert_first>
     820:	0f ef       	ldi	r16, 0xFF	; 255
     822:	1f ef       	ldi	r17, 0xFF	; 255
     824:	18 c0       	rjmp	.+48     	; 0x856 <__DATA_REGION_LENGTH__+0x56>
     826:	86 e0       	ldi	r24, 0x06	; 6
     828:	90 e0       	ldi	r25, 0x00	; 0
     82a:	0e 94 f3 06 	call	0xde6	; 0xde6 <malloc>
     82e:	fc 01       	movw	r30, r24
     830:	d1 82       	std	Z+1, r13	; 0x01
     832:	c0 82       	st	Z, r12
     834:	f3 82       	std	Z+3, r15	; 0x03
     836:	e2 82       	std	Z+2, r14	; 0x02
     838:	15 82       	std	Z+5, r1	; 0x05
     83a:	14 82       	std	Z+4, r1	; 0x04
     83c:	aa 81       	ldd	r26, Y+2	; 0x02
     83e:	bb 81       	ldd	r27, Y+3	; 0x03
     840:	15 96       	adiw	r26, 0x05	; 5
     842:	9c 93       	st	X, r25
     844:	8e 93       	st	-X, r24
     846:	14 97       	sbiw	r26, 0x04	; 4
     848:	9b 83       	std	Y+3, r25	; 0x03
     84a:	8a 83       	std	Y+2, r24	; 0x02
     84c:	8c 81       	ldd	r24, Y+4	; 0x04
     84e:	9d 81       	ldd	r25, Y+5	; 0x05
     850:	01 96       	adiw	r24, 0x01	; 1
     852:	9d 83       	std	Y+5, r25	; 0x05
     854:	8c 83       	std	Y+4, r24	; 0x04
     856:	c8 01       	movw	r24, r16
     858:	df 91       	pop	r29
     85a:	cf 91       	pop	r28
     85c:	1f 91       	pop	r17
     85e:	0f 91       	pop	r16
     860:	ff 90       	pop	r15
     862:	ef 90       	pop	r14
     864:	df 90       	pop	r13
     866:	cf 90       	pop	r12
     868:	08 95       	ret

0000086a <del_first>:
     86a:	0f 93       	push	r16
     86c:	1f 93       	push	r17
     86e:	cf 93       	push	r28
     870:	df 93       	push	r29
     872:	ec 01       	movw	r28, r24
     874:	0e 94 ca 03 	call	0x794	; 0x794 <is_empty>
     878:	8c 01       	movw	r16, r24
     87a:	89 2b       	or	r24, r25
     87c:	b1 f4       	brne	.+44     	; 0x8aa <del_first+0x40>
     87e:	88 81       	ld	r24, Y
     880:	99 81       	ldd	r25, Y+1	; 0x01
     882:	fc 01       	movw	r30, r24
     884:	24 81       	ldd	r18, Z+4	; 0x04
     886:	35 81       	ldd	r19, Z+5	; 0x05
     888:	23 2b       	or	r18, r19
     88a:	11 f4       	brne	.+4      	; 0x890 <del_first+0x26>
     88c:	1b 82       	std	Y+3, r1	; 0x03
     88e:	1a 82       	std	Y+2, r1	; 0x02
     890:	fc 01       	movw	r30, r24
     892:	24 81       	ldd	r18, Z+4	; 0x04
     894:	35 81       	ldd	r19, Z+5	; 0x05
     896:	39 83       	std	Y+1, r19	; 0x01
     898:	28 83       	st	Y, r18
     89a:	0e 94 8b 07 	call	0xf16	; 0xf16 <free>
     89e:	8c 81       	ldd	r24, Y+4	; 0x04
     8a0:	9d 81       	ldd	r25, Y+5	; 0x05
     8a2:	01 97       	sbiw	r24, 0x01	; 1
     8a4:	9d 83       	std	Y+5, r25	; 0x05
     8a6:	8c 83       	std	Y+4, r24	; 0x04
     8a8:	02 c0       	rjmp	.+4      	; 0x8ae <del_first+0x44>
     8aa:	0f ef       	ldi	r16, 0xFF	; 255
     8ac:	1f ef       	ldi	r17, 0xFF	; 255
     8ae:	c8 01       	movw	r24, r16
     8b0:	df 91       	pop	r29
     8b2:	cf 91       	pop	r28
     8b4:	1f 91       	pop	r17
     8b6:	0f 91       	pop	r16
     8b8:	08 95       	ret

000008ba <del>:
     8ba:	cf 92       	push	r12
     8bc:	df 92       	push	r13
     8be:	ef 92       	push	r14
     8c0:	ff 92       	push	r15
     8c2:	0f 93       	push	r16
     8c4:	1f 93       	push	r17
     8c6:	cf 93       	push	r28
     8c8:	df 93       	push	r29
     8ca:	7c 01       	movw	r14, r24
     8cc:	8b 01       	movw	r16, r22
     8ce:	0e 94 ca 03 	call	0x794	; 0x794 <is_empty>
     8d2:	6c 01       	movw	r12, r24
     8d4:	89 2b       	or	r24, r25
     8d6:	e1 f5       	brne	.+120    	; 0x950 <del+0x96>
     8d8:	f7 01       	movw	r30, r14
     8da:	c0 81       	ld	r28, Z
     8dc:	d1 81       	ldd	r29, Z+1	; 0x01
     8de:	8c 81       	ldd	r24, Y+4	; 0x04
     8e0:	9d 81       	ldd	r25, Y+5	; 0x05
     8e2:	89 2b       	or	r24, r25
     8e4:	29 f0       	breq	.+10     	; 0x8f0 <del+0x36>
     8e6:	88 81       	ld	r24, Y
     8e8:	99 81       	ldd	r25, Y+1	; 0x01
     8ea:	80 17       	cp	r24, r16
     8ec:	91 07       	cpc	r25, r17
     8ee:	29 f5       	brne	.+74     	; 0x93a <del+0x80>
     8f0:	c7 01       	movw	r24, r14
     8f2:	0e 94 35 04 	call	0x86a	; 0x86a <del_first>
     8f6:	0f 2e       	mov	r0, r31
     8f8:	fe ef       	ldi	r31, 0xFE	; 254
     8fa:	cf 2e       	mov	r12, r31
     8fc:	dd 24       	eor	r13, r13
     8fe:	da 94       	dec	r13
     900:	f0 2d       	mov	r31, r0
     902:	29 c0       	rjmp	.+82     	; 0x956 <del+0x9c>
     904:	80 81       	ld	r24, Z
     906:	91 81       	ldd	r25, Z+1	; 0x01
     908:	08 17       	cp	r16, r24
     90a:	19 07       	cpc	r17, r25
     90c:	a9 f4       	brne	.+42     	; 0x938 <del+0x7e>
     90e:	84 81       	ldd	r24, Z+4	; 0x04
     910:	95 81       	ldd	r25, Z+5	; 0x05
     912:	9d 83       	std	Y+5, r25	; 0x05
     914:	8c 83       	std	Y+4, r24	; 0x04
     916:	cf 01       	movw	r24, r30
     918:	0e 94 8b 07 	call	0xf16	; 0xf16 <free>
     91c:	8c 81       	ldd	r24, Y+4	; 0x04
     91e:	9d 81       	ldd	r25, Y+5	; 0x05
     920:	89 2b       	or	r24, r25
     922:	19 f4       	brne	.+6      	; 0x92a <del+0x70>
     924:	f7 01       	movw	r30, r14
     926:	d3 83       	std	Z+3, r29	; 0x03
     928:	c2 83       	std	Z+2, r28	; 0x02
     92a:	f7 01       	movw	r30, r14
     92c:	84 81       	ldd	r24, Z+4	; 0x04
     92e:	95 81       	ldd	r25, Z+5	; 0x05
     930:	01 97       	sbiw	r24, 0x01	; 1
     932:	95 83       	std	Z+5, r25	; 0x05
     934:	84 83       	std	Z+4, r24	; 0x04
     936:	0f c0       	rjmp	.+30     	; 0x956 <del+0x9c>
     938:	ef 01       	movw	r28, r30
     93a:	ec 81       	ldd	r30, Y+4	; 0x04
     93c:	fd 81       	ldd	r31, Y+5	; 0x05
     93e:	30 97       	sbiw	r30, 0x00	; 0
     940:	09 f7       	brne	.-62     	; 0x904 <del+0x4a>
     942:	0f 2e       	mov	r0, r31
     944:	fd ef       	ldi	r31, 0xFD	; 253
     946:	cf 2e       	mov	r12, r31
     948:	dd 24       	eor	r13, r13
     94a:	da 94       	dec	r13
     94c:	f0 2d       	mov	r31, r0
     94e:	03 c0       	rjmp	.+6      	; 0x956 <del+0x9c>
     950:	cc 24       	eor	r12, r12
     952:	ca 94       	dec	r12
     954:	dc 2c       	mov	r13, r12
     956:	c6 01       	movw	r24, r12
     958:	df 91       	pop	r29
     95a:	cf 91       	pop	r28
     95c:	1f 91       	pop	r17
     95e:	0f 91       	pop	r16
     960:	ff 90       	pop	r15
     962:	ef 90       	pop	r14
     964:	df 90       	pop	r13
     966:	cf 90       	pop	r12
     968:	08 95       	ret

0000096a <del_with_ptr>:
     96a:	cf 92       	push	r12
     96c:	df 92       	push	r13
     96e:	ef 92       	push	r14
     970:	ff 92       	push	r15
     972:	0f 93       	push	r16
     974:	1f 93       	push	r17
     976:	cf 93       	push	r28
     978:	df 93       	push	r29
     97a:	41 15       	cp	r20, r1
     97c:	51 05       	cpc	r21, r1
     97e:	09 f4       	brne	.+2      	; 0x982 <del_with_ptr+0x18>
     980:	42 c0       	rjmp	.+132    	; 0xa06 <del_with_ptr+0x9c>
     982:	61 15       	cp	r22, r1
     984:	71 05       	cpc	r23, r1
     986:	09 f4       	brne	.+2      	; 0x98a <del_with_ptr+0x20>
     988:	45 c0       	rjmp	.+138    	; 0xa14 <del_with_ptr+0xaa>
     98a:	ea 01       	movw	r28, r20
     98c:	8b 01       	movw	r16, r22
     98e:	7c 01       	movw	r14, r24
     990:	46 17       	cp	r20, r22
     992:	57 07       	cpc	r21, r23
     994:	39 f4       	brne	.+14     	; 0x9a4 <del_with_ptr+0x3a>
     996:	68 81       	ld	r22, Y
     998:	79 81       	ldd	r23, Y+1	; 0x01
     99a:	0e 94 5d 04 	call	0x8ba	; 0x8ba <del>
     99e:	c1 2c       	mov	r12, r1
     9a0:	d1 2c       	mov	r13, r1
     9a2:	42 c0       	rjmp	.+132    	; 0xa28 <del_with_ptr+0xbe>
     9a4:	fb 01       	movw	r30, r22
     9a6:	84 81       	ldd	r24, Z+4	; 0x04
     9a8:	95 81       	ldd	r25, Z+5	; 0x05
     9aa:	48 17       	cp	r20, r24
     9ac:	59 07       	cpc	r21, r25
     9ae:	41 f0       	breq	.+16     	; 0x9c0 <del_with_ptr+0x56>
     9b0:	68 81       	ld	r22, Y
     9b2:	79 81       	ldd	r23, Y+1	; 0x01
     9b4:	c7 01       	movw	r24, r14
     9b6:	0e 94 5d 04 	call	0x8ba	; 0x8ba <del>
     9ba:	c1 2c       	mov	r12, r1
     9bc:	d1 2c       	mov	r13, r1
     9be:	34 c0       	rjmp	.+104    	; 0xa28 <del_with_ptr+0xbe>
     9c0:	c7 01       	movw	r24, r14
     9c2:	0e 94 ca 03 	call	0x794	; 0x794 <is_empty>
     9c6:	6c 01       	movw	r12, r24
     9c8:	89 2b       	or	r24, r25
     9ca:	59 f5       	brne	.+86     	; 0xa22 <del_with_ptr+0xb8>
     9cc:	f7 01       	movw	r30, r14
     9ce:	84 81       	ldd	r24, Z+4	; 0x04
     9d0:	95 81       	ldd	r25, Z+5	; 0x05
     9d2:	01 97       	sbiw	r24, 0x01	; 1
     9d4:	21 f4       	brne	.+8      	; 0x9de <del_with_ptr+0x74>
     9d6:	c7 01       	movw	r24, r14
     9d8:	0e 94 35 04 	call	0x86a	; 0x86a <del_first>
     9dc:	25 c0       	rjmp	.+74     	; 0xa28 <del_with_ptr+0xbe>
     9de:	8c 81       	ldd	r24, Y+4	; 0x04
     9e0:	9d 81       	ldd	r25, Y+5	; 0x05
     9e2:	f8 01       	movw	r30, r16
     9e4:	95 83       	std	Z+5, r25	; 0x05
     9e6:	84 83       	std	Z+4, r24	; 0x04
     9e8:	89 2b       	or	r24, r25
     9ea:	19 f4       	brne	.+6      	; 0x9f2 <del_with_ptr+0x88>
     9ec:	f7 01       	movw	r30, r14
     9ee:	13 83       	std	Z+3, r17	; 0x03
     9f0:	02 83       	std	Z+2, r16	; 0x02
     9f2:	ce 01       	movw	r24, r28
     9f4:	0e 94 8b 07 	call	0xf16	; 0xf16 <free>
     9f8:	f7 01       	movw	r30, r14
     9fa:	84 81       	ldd	r24, Z+4	; 0x04
     9fc:	95 81       	ldd	r25, Z+5	; 0x05
     9fe:	01 97       	sbiw	r24, 0x01	; 1
     a00:	95 83       	std	Z+5, r25	; 0x05
     a02:	84 83       	std	Z+4, r24	; 0x04
     a04:	11 c0       	rjmp	.+34     	; 0xa28 <del_with_ptr+0xbe>
     a06:	0f 2e       	mov	r0, r31
     a08:	fe ef       	ldi	r31, 0xFE	; 254
     a0a:	cf 2e       	mov	r12, r31
     a0c:	dd 24       	eor	r13, r13
     a0e:	da 94       	dec	r13
     a10:	f0 2d       	mov	r31, r0
     a12:	0a c0       	rjmp	.+20     	; 0xa28 <del_with_ptr+0xbe>
     a14:	0f 2e       	mov	r0, r31
     a16:	fe ef       	ldi	r31, 0xFE	; 254
     a18:	cf 2e       	mov	r12, r31
     a1a:	dd 24       	eor	r13, r13
     a1c:	da 94       	dec	r13
     a1e:	f0 2d       	mov	r31, r0
     a20:	03 c0       	rjmp	.+6      	; 0xa28 <del_with_ptr+0xbe>
     a22:	cc 24       	eor	r12, r12
     a24:	ca 94       	dec	r12
     a26:	dc 2c       	mov	r13, r12
     a28:	c6 01       	movw	r24, r12
     a2a:	df 91       	pop	r29
     a2c:	cf 91       	pop	r28
     a2e:	1f 91       	pop	r17
     a30:	0f 91       	pop	r16
     a32:	ff 90       	pop	r15
     a34:	ef 90       	pop	r14
     a36:	df 90       	pop	r13
     a38:	cf 90       	pop	r12
     a3a:	08 95       	ret

00000a3c <empty>:

void empty(Linkedlist* this)
{
     a3c:	cf 93       	push	r28
     a3e:	df 93       	push	r29
     a40:	ec 01       	movw	r28, r24
	while (!is_empty(this))
     a42:	03 c0       	rjmp	.+6      	; 0xa4a <empty+0xe>
	{
		del_first(this);
     a44:	ce 01       	movw	r24, r28
     a46:	0e 94 35 04 	call	0x86a	; 0x86a <del_first>
	return 0;
}

void empty(Linkedlist* this)
{
	while (!is_empty(this))
     a4a:	ce 01       	movw	r24, r28
     a4c:	0e 94 ca 03 	call	0x794	; 0x794 <is_empty>
     a50:	89 2b       	or	r24, r25
     a52:	c1 f3       	breq	.-16     	; 0xa44 <empty+0x8>
	{
		del_first(this);
	}
}
     a54:	df 91       	pop	r29
     a56:	cf 91       	pop	r28
     a58:	08 95       	ret

00000a5a <tokenize_int>:
#include "HAL/LCD.h"
#include "LIB/Linkedlist.h"
#include "LIB/Calculator.h"

int tokenize_int(int x)
{
     a5a:	cf 93       	push	r28
	if (x == 0)
     a5c:	00 97       	sbiw	r24, 0x00	; 0
     a5e:	81 f0       	breq	.+32     	; 0xa80 <tokenize_int+0x26>
	{
		return x;
	}
	else if (x < 0)
     a60:	1c f4       	brge	.+6      	; 0xa68 <tokenize_int+0xe>
	{
		x = -x;
     a62:	91 95       	neg	r25
     a64:	81 95       	neg	r24
     a66:	91 09       	sbc	r25, r1
	}
	tokenize_int(x/10);
     a68:	6a e0       	ldi	r22, 0x0A	; 10
     a6a:	70 e0       	ldi	r23, 0x00	; 0
     a6c:	0e 94 c5 06 	call	0xd8a	; 0xd8a <__divmodhi4>
     a70:	c8 2f       	mov	r28, r24
     a72:	cb 01       	movw	r24, r22
     a74:	0e 94 2d 05 	call	0xa5a	; 0xa5a <tokenize_int>

	LCD_Data((x%10) + 48);
     a78:	80 e3       	ldi	r24, 0x30	; 48
     a7a:	8c 0f       	add	r24, r28
     a7c:	0e 94 31 01 	call	0x262	; 0x262 <LCD_Data>
}
     a80:	cf 91       	pop	r28
     a82:	08 95       	ret

00000a84 <int_length>:

int int_length(int x)
{
	int length = 0;
	
	if (x < 0)
     a84:	99 23       	and	r25, r25
     a86:	34 f4       	brge	.+12     	; 0xa94 <int_length+0x10>
	{
		x = -x;
     a88:	91 95       	neg	r25
     a8a:	81 95       	neg	r24
     a8c:	91 09       	sbc	r25, r1

	LCD_Data((x%10) + 48);
}

int int_length(int x)
{
     a8e:	20 e0       	ldi	r18, 0x00	; 0
     a90:	30 e0       	ldi	r19, 0x00	; 0
     a92:	0a c0       	rjmp	.+20     	; 0xaa8 <int_length+0x24>
	
	if (x < 0)
	{
		x = -x;
	}
	else if (x == 0)
     a94:	00 97       	sbiw	r24, 0x00	; 0
     a96:	d9 f7       	brne	.-10     	; 0xa8e <int_length+0xa>
     a98:	0d c0       	rjmp	.+26     	; 0xab4 <int_length+0x30>
		return 1;
	}
	
	while (x > 0)
	{
		length++;
     a9a:	2f 5f       	subi	r18, 0xFF	; 255
     a9c:	3f 4f       	sbci	r19, 0xFF	; 255
		x /= 10;
     a9e:	6a e0       	ldi	r22, 0x0A	; 10
     aa0:	70 e0       	ldi	r23, 0x00	; 0
     aa2:	0e 94 c5 06 	call	0xd8a	; 0xd8a <__divmodhi4>
     aa6:	cb 01       	movw	r24, r22
	else if (x == 0)
	{
		return 1;
	}
	
	while (x > 0)
     aa8:	18 16       	cp	r1, r24
     aaa:	19 06       	cpc	r1, r25
     aac:	b4 f3       	brlt	.-20     	; 0xa9a <int_length+0x16>
	{
		length++;
		x /= 10;
	}
	
	return length;
     aae:	82 2f       	mov	r24, r18
     ab0:	93 2f       	mov	r25, r19
     ab2:	08 95       	ret
	{
		x = -x;
	}
	else if (x == 0)
	{
		return 1;
     ab4:	81 e0       	ldi	r24, 0x01	; 1
     ab6:	90 e0       	ldi	r25, 0x00	; 0
		length++;
		x /= 10;
	}
	
	return length;
}
     ab8:	08 95       	ret

00000aba <main>:

int main(void)
{
     aba:	cf 93       	push	r28
     abc:	df 93       	push	r29
     abe:	cd b7       	in	r28, 0x3d	; 61
     ac0:	de b7       	in	r29, 0x3e	; 62
     ac2:	2c 97       	sbiw	r28, 0x0c	; 12
     ac4:	0f b6       	in	r0, 0x3f	; 63
     ac6:	f8 94       	cli
     ac8:	de bf       	out	0x3e, r29	; 62
     aca:	0f be       	out	0x3f, r0	; 63
     acc:	cd bf       	out	0x3d, r28	; 61
	KEYPAD_Init();
     ace:	0e 94 78 00 	call	0xf0	; 0xf0 <KEYPAD_Init>
	LCD_Init();
     ad2:	0e 94 d1 01 	call	0x3a2	; 0x3a2 <LCD_Init>
	Linkedlist num_list;
	Linkedlist calc_list;
	int result;
	int length = 0;
	
	Linkedlist_constructor(&num_list);
     ad6:	ce 01       	movw	r24, r28
     ad8:	01 96       	adiw	r24, 0x01	; 1
     ada:	0e 94 c2 03 	call	0x784	; 0x784 <Linkedlist_constructor>
	Linkedlist_constructor(&calc_list);
     ade:	ce 01       	movw	r24, r28
     ae0:	07 96       	adiw	r24, 0x07	; 7
     ae2:	0e 94 c2 03 	call	0x784	; 0x784 <Linkedlist_constructor>
	
	u8 keypressed;

    while (1) 
    {
		keypressed = KEYPAD_GetPressedKey();
     ae6:	0e 94 81 00 	call	0x102	; 0x102 <KEYPAD_GetPressedKey>
     aea:	18 2f       	mov	r17, r24

		switch (keypressed)
     aec:	90 e0       	ldi	r25, 0x00	; 0
     aee:	fc 01       	movw	r30, r24
     af0:	ba 97       	sbiw	r30, 0x2a	; 42
     af2:	ef 32       	cpi	r30, 0x2F	; 47
     af4:	f1 05       	cpc	r31, r1
     af6:	b8 f7       	brcc	.-18     	; 0xae6 <main+0x2c>
     af8:	e6 5d       	subi	r30, 0xD6	; 214
     afa:	ff 4f       	sbci	r31, 0xFF	; 255
     afc:	0c 94 d9 06 	jmp	0xdb2	; 0xdb2 <__tablejump2__>
			case '5':
			case '6':
			case '7':
			case '8':
			case '9':
			if (columnME < 40)
     b00:	80 91 88 00 	lds	r24, 0x0088	; 0x800088 <columnME>
     b04:	90 91 89 00 	lds	r25, 0x0089	; 0x800089 <columnME+0x1>
     b08:	88 97       	sbiw	r24, 0x28	; 40
     b0a:	6c f7       	brge	.-38     	; 0xae6 <main+0x2c>
			{
				append(&num_list, keypressed, 0);
     b0c:	61 2f       	mov	r22, r17
     b0e:	70 e0       	ldi	r23, 0x00	; 0
     b10:	40 e0       	ldi	r20, 0x00	; 0
     b12:	50 e0       	ldi	r21, 0x00	; 0
     b14:	ce 01       	movw	r24, r28
     b16:	01 96       	adiw	r24, 0x01	; 1
     b18:	0e 94 fb 03 	call	0x7f6	; 0x7f6 <append>
				LCD_Data(keypressed);
     b1c:	81 2f       	mov	r24, r17
     b1e:	0e 94 31 01 	call	0x262	; 0x262 <LCD_Data>
     b22:	e1 cf       	rjmp	.-62     	; 0xae6 <main+0x2c>
			break;
			case '+':
			case '-':
			case 'X':
			case '/':
			if (columnME < 40)
     b24:	80 91 88 00 	lds	r24, 0x0088	; 0x800088 <columnME>
     b28:	90 91 89 00 	lds	r25, 0x0089	; 0x800089 <columnME+0x1>
     b2c:	88 97       	sbiw	r24, 0x28	; 40
     b2e:	dc f6       	brge	.-74     	; 0xae6 <main+0x2c>
			{
				if (num_list.length > 0)
     b30:	8d 81       	ldd	r24, Y+5	; 0x05
     b32:	9e 81       	ldd	r25, Y+6	; 0x06
     b34:	18 16       	cp	r1, r24
     b36:	19 06       	cpc	r1, r25
     b38:	7c f4       	brge	.+30     	; 0xb58 <main+0x9e>
				{
					append(&calc_list, parse_int(&num_list), 0);
     b3a:	ce 01       	movw	r24, r28
     b3c:	01 96       	adiw	r24, 0x01	; 1
     b3e:	0e 94 10 02 	call	0x420	; 0x420 <parse_int>
     b42:	40 e0       	ldi	r20, 0x00	; 0
     b44:	50 e0       	ldi	r21, 0x00	; 0
     b46:	bc 01       	movw	r22, r24
     b48:	ce 01       	movw	r24, r28
     b4a:	07 96       	adiw	r24, 0x07	; 7
     b4c:	0e 94 fb 03 	call	0x7f6	; 0x7f6 <append>
					empty(&num_list);
     b50:	ce 01       	movw	r24, r28
     b52:	01 96       	adiw	r24, 0x01	; 1
     b54:	0e 94 1e 05 	call	0xa3c	; 0xa3c <empty>
				}
				append(&calc_list, keypressed, 1);
     b58:	61 2f       	mov	r22, r17
     b5a:	70 e0       	ldi	r23, 0x00	; 0
     b5c:	41 e0       	ldi	r20, 0x01	; 1
     b5e:	50 e0       	ldi	r21, 0x00	; 0
     b60:	ce 01       	movw	r24, r28
     b62:	07 96       	adiw	r24, 0x07	; 7
     b64:	0e 94 fb 03 	call	0x7f6	; 0x7f6 <append>
				LCD_Data(keypressed);
     b68:	81 2f       	mov	r24, r17
     b6a:	0e 94 31 01 	call	0x262	; 0x262 <LCD_Data>
     b6e:	bb cf       	rjmp	.-138    	; 0xae6 <main+0x2c>
			}
			break;
			case '*':
			LCD_ClearScreen();
     b70:	0e 94 c9 01 	call	0x392	; 0x392 <LCD_ClearScreen>
			empty(&num_list);
     b74:	ce 01       	movw	r24, r28
     b76:	01 96       	adiw	r24, 0x01	; 1
     b78:	0e 94 1e 05 	call	0xa3c	; 0xa3c <empty>
			empty(&calc_list);
     b7c:	ce 01       	movw	r24, r28
     b7e:	07 96       	adiw	r24, 0x07	; 7
     b80:	0e 94 1e 05 	call	0xa3c	; 0xa3c <empty>
			break;
     b84:	b0 cf       	rjmp	.-160    	; 0xae6 <main+0x2c>
			case '=':
			append(&calc_list, parse_int(&num_list), 0);
     b86:	ce 01       	movw	r24, r28
     b88:	01 96       	adiw	r24, 0x01	; 1
     b8a:	0e 94 10 02 	call	0x420	; 0x420 <parse_int>
     b8e:	40 e0       	ldi	r20, 0x00	; 0
     b90:	50 e0       	ldi	r21, 0x00	; 0
     b92:	bc 01       	movw	r22, r24
     b94:	ce 01       	movw	r24, r28
     b96:	07 96       	adiw	r24, 0x07	; 7
     b98:	0e 94 fb 03 	call	0x7f6	; 0x7f6 <append>
			empty(&num_list);
     b9c:	ce 01       	movw	r24, r28
     b9e:	01 96       	adiw	r24, 0x01	; 1
     ba0:	0e 94 1e 05 	call	0xa3c	; 0xa3c <empty>
			result = calculate(&calc_list);
     ba4:	ce 01       	movw	r24, r28
     ba6:	07 96       	adiw	r24, 0x07	; 7
     ba8:	0e 94 7e 03 	call	0x6fc	; 0x6fc <calculate>
     bac:	8c 01       	movw	r16, r24
			length = int_length(result);
     bae:	0e 94 42 05 	call	0xa84	; 0xa84 <int_length>
			if (result < 0)
     bb2:	11 23       	and	r17, r17
     bb4:	0c f4       	brge	.+2      	; 0xbb8 <main+0xfe>
			{
				length++;
     bb6:	01 96       	adiw	r24, 0x01	; 1
			}
			
			LCD_MoveCursor(1, 14 - length);
     bb8:	6e e0       	ldi	r22, 0x0E	; 14
     bba:	68 1b       	sub	r22, r24
     bbc:	81 e0       	ldi	r24, 0x01	; 1
     bbe:	0e 94 6e 01 	call	0x2dc	; 0x2dc <LCD_MoveCursor>
			
			if (result < 0)
     bc2:	11 23       	and	r17, r17
     bc4:	1c f4       	brge	.+6      	; 0xbcc <main+0x112>
			{
				LCD_Data('-');
     bc6:	8d e2       	ldi	r24, 0x2D	; 45
     bc8:	0e 94 31 01 	call	0x262	; 0x262 <LCD_Data>
			}
			
			if (result != 0)
     bcc:	01 15       	cp	r16, r1
     bce:	11 05       	cpc	r17, r1
     bd0:	21 f0       	breq	.+8      	; 0xbda <main+0x120>
			{
				tokenize_int(result);
     bd2:	c8 01       	movw	r24, r16
     bd4:	0e 94 2d 05 	call	0xa5a	; 0xa5a <tokenize_int>
     bd8:	86 cf       	rjmp	.-244    	; 0xae6 <main+0x2c>
			}
			else
			{
				LCD_Data('0');
     bda:	80 e3       	ldi	r24, 0x30	; 48
     bdc:	0e 94 31 01 	call	0x262	; 0x262 <LCD_Data>
     be0:	82 cf       	rjmp	.-252    	; 0xae6 <main+0x2c>

00000be2 <DIO_voidSetPortDirection>:
				{
					SET_BIT(DDRD, Copy_u8Pin);
				}
				else if (Copy_u8Direction == 0)
				{
					CLR_BIT(DDRD, Copy_u8Pin);
     be2:	84 30       	cpi	r24, 0x04	; 4
     be4:	78 f4       	brcc	.+30     	; 0xc04 <DIO_voidSetPortDirection+0x22>
     be6:	81 30       	cpi	r24, 0x01	; 1
     be8:	41 f0       	breq	.+16     	; 0xbfa <DIO_voidSetPortDirection+0x18>
     bea:	28 f0       	brcs	.+10     	; 0xbf6 <DIO_voidSetPortDirection+0x14>
     bec:	82 30       	cpi	r24, 0x02	; 2
     bee:	39 f0       	breq	.+14     	; 0xbfe <DIO_voidSetPortDirection+0x1c>
     bf0:	83 30       	cpi	r24, 0x03	; 3
     bf2:	39 f0       	breq	.+14     	; 0xc02 <DIO_voidSetPortDirection+0x20>
     bf4:	08 95       	ret
     bf6:	6a bb       	out	0x1a, r22	; 26
     bf8:	08 95       	ret
     bfa:	67 bb       	out	0x17, r22	; 23
     bfc:	08 95       	ret
     bfe:	64 bb       	out	0x14, r22	; 20
     c00:	08 95       	ret
     c02:	61 bb       	out	0x11, r22	; 17
     c04:	08 95       	ret

00000c06 <DIO_voidSetPortValue>:
     c06:	84 30       	cpi	r24, 0x04	; 4
     c08:	78 f4       	brcc	.+30     	; 0xc28 <DIO_voidSetPortValue+0x22>
     c0a:	81 30       	cpi	r24, 0x01	; 1
     c0c:	41 f0       	breq	.+16     	; 0xc1e <DIO_voidSetPortValue+0x18>
     c0e:	28 f0       	brcs	.+10     	; 0xc1a <DIO_voidSetPortValue+0x14>
     c10:	82 30       	cpi	r24, 0x02	; 2
     c12:	39 f0       	breq	.+14     	; 0xc22 <DIO_voidSetPortValue+0x1c>
     c14:	83 30       	cpi	r24, 0x03	; 3
     c16:	39 f0       	breq	.+14     	; 0xc26 <DIO_voidSetPortValue+0x20>
     c18:	08 95       	ret
     c1a:	6b bb       	out	0x1b, r22	; 27
     c1c:	08 95       	ret
     c1e:	68 bb       	out	0x18, r22	; 24
     c20:	08 95       	ret
     c22:	65 bb       	out	0x15, r22	; 21
     c24:	08 95       	ret
     c26:	62 bb       	out	0x12, r22	; 18
     c28:	08 95       	ret

00000c2a <DIO_voidSetPinValue>:
	}
}

void DIO_voidSetPinValue(u8 Copy_u8PORT, u8 Copy_u8Pin, u8 Copy_u8Value)
{
	if (Copy_u8PORT < 4 && Copy_u8Pin < 8)
     c2a:	84 30       	cpi	r24, 0x04	; 4
     c2c:	08 f0       	brcs	.+2      	; 0xc30 <DIO_voidSetPinValue+0x6>
     c2e:	77 c0       	rjmp	.+238    	; 0xd1e <DIO_voidSetPinValue+0xf4>
     c30:	68 30       	cpi	r22, 0x08	; 8
     c32:	08 f0       	brcs	.+2      	; 0xc36 <DIO_voidSetPinValue+0xc>
     c34:	74 c0       	rjmp	.+232    	; 0xd1e <DIO_voidSetPinValue+0xf4>
	{
		switch (Copy_u8PORT)
     c36:	81 30       	cpi	r24, 0x01	; 1
     c38:	11 f1       	breq	.+68     	; 0xc7e <DIO_voidSetPinValue+0x54>
     c3a:	30 f0       	brcs	.+12     	; 0xc48 <DIO_voidSetPinValue+0x1e>
     c3c:	82 30       	cpi	r24, 0x02	; 2
     c3e:	d1 f1       	breq	.+116    	; 0xcb4 <DIO_voidSetPinValue+0x8a>
     c40:	83 30       	cpi	r24, 0x03	; 3
     c42:	09 f4       	brne	.+2      	; 0xc46 <DIO_voidSetPinValue+0x1c>
     c44:	52 c0       	rjmp	.+164    	; 0xcea <DIO_voidSetPinValue+0xc0>
     c46:	08 95       	ret
		{
			case PORTA_ID:
			if (Copy_u8Value == 1)
     c48:	41 30       	cpi	r20, 0x01	; 1
     c4a:	59 f4       	brne	.+22     	; 0xc62 <DIO_voidSetPinValue+0x38>
			{
				SET_BIT(PORTA, Copy_u8Pin);
     c4c:	2b b3       	in	r18, 0x1b	; 27
     c4e:	81 e0       	ldi	r24, 0x01	; 1
     c50:	90 e0       	ldi	r25, 0x00	; 0
     c52:	02 c0       	rjmp	.+4      	; 0xc58 <DIO_voidSetPinValue+0x2e>
     c54:	88 0f       	add	r24, r24
     c56:	99 1f       	adc	r25, r25
     c58:	6a 95       	dec	r22
     c5a:	e2 f7       	brpl	.-8      	; 0xc54 <DIO_voidSetPinValue+0x2a>
     c5c:	82 2b       	or	r24, r18
     c5e:	8b bb       	out	0x1b, r24	; 27
     c60:	08 95       	ret
			}
			else if (Copy_u8Value == 0)
     c62:	41 11       	cpse	r20, r1
     c64:	5c c0       	rjmp	.+184    	; 0xd1e <DIO_voidSetPinValue+0xf4>
			{
				CLR_BIT(PORTA, Copy_u8Pin);
     c66:	2b b3       	in	r18, 0x1b	; 27
     c68:	81 e0       	ldi	r24, 0x01	; 1
     c6a:	90 e0       	ldi	r25, 0x00	; 0
     c6c:	02 c0       	rjmp	.+4      	; 0xc72 <DIO_voidSetPinValue+0x48>
     c6e:	88 0f       	add	r24, r24
     c70:	99 1f       	adc	r25, r25
     c72:	6a 95       	dec	r22
     c74:	e2 f7       	brpl	.-8      	; 0xc6e <DIO_voidSetPinValue+0x44>
     c76:	80 95       	com	r24
     c78:	82 23       	and	r24, r18
     c7a:	8b bb       	out	0x1b, r24	; 27
     c7c:	08 95       	ret
			}
			break;
			case PORTB_ID:
			if (Copy_u8Value == 1)
     c7e:	41 30       	cpi	r20, 0x01	; 1
     c80:	59 f4       	brne	.+22     	; 0xc98 <DIO_voidSetPinValue+0x6e>
			{
				SET_BIT(PORTB, Copy_u8Pin);
     c82:	28 b3       	in	r18, 0x18	; 24
     c84:	81 e0       	ldi	r24, 0x01	; 1
     c86:	90 e0       	ldi	r25, 0x00	; 0
     c88:	02 c0       	rjmp	.+4      	; 0xc8e <DIO_voidSetPinValue+0x64>
     c8a:	88 0f       	add	r24, r24
     c8c:	99 1f       	adc	r25, r25
     c8e:	6a 95       	dec	r22
     c90:	e2 f7       	brpl	.-8      	; 0xc8a <DIO_voidSetPinValue+0x60>
     c92:	82 2b       	or	r24, r18
     c94:	88 bb       	out	0x18, r24	; 24
     c96:	08 95       	ret
			}
			else if (Copy_u8Value == 0)
     c98:	41 11       	cpse	r20, r1
     c9a:	41 c0       	rjmp	.+130    	; 0xd1e <DIO_voidSetPinValue+0xf4>
			{
				CLR_BIT(PORTB, Copy_u8Pin);
     c9c:	28 b3       	in	r18, 0x18	; 24
     c9e:	81 e0       	ldi	r24, 0x01	; 1
     ca0:	90 e0       	ldi	r25, 0x00	; 0
     ca2:	02 c0       	rjmp	.+4      	; 0xca8 <DIO_voidSetPinValue+0x7e>
     ca4:	88 0f       	add	r24, r24
     ca6:	99 1f       	adc	r25, r25
     ca8:	6a 95       	dec	r22
     caa:	e2 f7       	brpl	.-8      	; 0xca4 <DIO_voidSetPinValue+0x7a>
     cac:	80 95       	com	r24
     cae:	82 23       	and	r24, r18
     cb0:	88 bb       	out	0x18, r24	; 24
     cb2:	08 95       	ret
			}
			break;
			case PORTC_ID:
			if (Copy_u8Value == 1)
     cb4:	41 30       	cpi	r20, 0x01	; 1
     cb6:	59 f4       	brne	.+22     	; 0xcce <DIO_voidSetPinValue+0xa4>
			{
				SET_BIT(PORTC, Copy_u8Pin);
     cb8:	25 b3       	in	r18, 0x15	; 21
     cba:	81 e0       	ldi	r24, 0x01	; 1
     cbc:	90 e0       	ldi	r25, 0x00	; 0
     cbe:	02 c0       	rjmp	.+4      	; 0xcc4 <DIO_voidSetPinValue+0x9a>
     cc0:	88 0f       	add	r24, r24
     cc2:	99 1f       	adc	r25, r25
     cc4:	6a 95       	dec	r22
     cc6:	e2 f7       	brpl	.-8      	; 0xcc0 <DIO_voidSetPinValue+0x96>
     cc8:	82 2b       	or	r24, r18
     cca:	85 bb       	out	0x15, r24	; 21
     ccc:	08 95       	ret
			}
			else if (Copy_u8Value == 0)
     cce:	41 11       	cpse	r20, r1
     cd0:	26 c0       	rjmp	.+76     	; 0xd1e <DIO_voidSetPinValue+0xf4>
			{
				CLR_BIT(PORTC, Copy_u8Pin);
     cd2:	25 b3       	in	r18, 0x15	; 21
     cd4:	81 e0       	ldi	r24, 0x01	; 1
     cd6:	90 e0       	ldi	r25, 0x00	; 0
     cd8:	02 c0       	rjmp	.+4      	; 0xcde <DIO_voidSetPinValue+0xb4>
     cda:	88 0f       	add	r24, r24
     cdc:	99 1f       	adc	r25, r25
     cde:	6a 95       	dec	r22
     ce0:	e2 f7       	brpl	.-8      	; 0xcda <DIO_voidSetPinValue+0xb0>
     ce2:	80 95       	com	r24
     ce4:	82 23       	and	r24, r18
     ce6:	85 bb       	out	0x15, r24	; 21
     ce8:	08 95       	ret
			}
			break;
			case PORTD_ID:
			if (Copy_u8Value == 1)
     cea:	41 30       	cpi	r20, 0x01	; 1
     cec:	59 f4       	brne	.+22     	; 0xd04 <DIO_voidSetPinValue+0xda>
			{
				SET_BIT(PORTD, Copy_u8Pin);
     cee:	22 b3       	in	r18, 0x12	; 18
     cf0:	81 e0       	ldi	r24, 0x01	; 1
     cf2:	90 e0       	ldi	r25, 0x00	; 0
     cf4:	02 c0       	rjmp	.+4      	; 0xcfa <DIO_voidSetPinValue+0xd0>
     cf6:	88 0f       	add	r24, r24
     cf8:	99 1f       	adc	r25, r25
     cfa:	6a 95       	dec	r22
     cfc:	e2 f7       	brpl	.-8      	; 0xcf6 <DIO_voidSetPinValue+0xcc>
     cfe:	82 2b       	or	r24, r18
     d00:	82 bb       	out	0x12, r24	; 18
     d02:	08 95       	ret
			}
			else if (Copy_u8Value == 0)
     d04:	41 11       	cpse	r20, r1
     d06:	0b c0       	rjmp	.+22     	; 0xd1e <DIO_voidSetPinValue+0xf4>
			{
				CLR_BIT(PORTD, Copy_u8Pin);
     d08:	22 b3       	in	r18, 0x12	; 18
     d0a:	81 e0       	ldi	r24, 0x01	; 1
     d0c:	90 e0       	ldi	r25, 0x00	; 0
     d0e:	02 c0       	rjmp	.+4      	; 0xd14 <DIO_voidSetPinValue+0xea>
     d10:	88 0f       	add	r24, r24
     d12:	99 1f       	adc	r25, r25
     d14:	6a 95       	dec	r22
     d16:	e2 f7       	brpl	.-8      	; 0xd10 <DIO_voidSetPinValue+0xe6>
     d18:	80 95       	com	r24
     d1a:	82 23       	and	r24, r18
     d1c:	82 bb       	out	0x12, r24	; 18
     d1e:	08 95       	ret

00000d20 <DIO_u8GetPinValue>:
	}
}

u8 DIO_u8GetPinValue(u8 Copy_u8PORT, u8 Copy_u8Pin)
{
	if (Copy_u8PORT < 4 && Copy_u8Pin < 8)
     d20:	84 30       	cpi	r24, 0x04	; 4
     d22:	78 f5       	brcc	.+94     	; 0xd82 <DIO_u8GetPinValue+0x62>
     d24:	68 30       	cpi	r22, 0x08	; 8
     d26:	78 f5       	brcc	.+94     	; 0xd86 <DIO_u8GetPinValue+0x66>
	{
		switch (Copy_u8PORT)
     d28:	81 30       	cpi	r24, 0x01	; 1
     d2a:	79 f0       	breq	.+30     	; 0xd4a <DIO_u8GetPinValue+0x2a>
     d2c:	28 f0       	brcs	.+10     	; 0xd38 <DIO_u8GetPinValue+0x18>
     d2e:	82 30       	cpi	r24, 0x02	; 2
     d30:	a9 f0       	breq	.+42     	; 0xd5c <DIO_u8GetPinValue+0x3c>
     d32:	83 30       	cpi	r24, 0x03	; 3
     d34:	e1 f0       	breq	.+56     	; 0xd6e <DIO_u8GetPinValue+0x4e>
     d36:	24 c0       	rjmp	.+72     	; 0xd80 <DIO_u8GetPinValue+0x60>
		{
			case PORTA_ID:
			return GET_BIT(PINA, Copy_u8Pin);
     d38:	89 b3       	in	r24, 0x19	; 25
     d3a:	90 e0       	ldi	r25, 0x00	; 0
     d3c:	02 c0       	rjmp	.+4      	; 0xd42 <DIO_u8GetPinValue+0x22>
     d3e:	95 95       	asr	r25
     d40:	87 95       	ror	r24
     d42:	6a 95       	dec	r22
     d44:	e2 f7       	brpl	.-8      	; 0xd3e <DIO_u8GetPinValue+0x1e>
     d46:	81 70       	andi	r24, 0x01	; 1
     d48:	08 95       	ret
			break;
			case PORTB_ID:
			return GET_BIT(PINB, Copy_u8Pin);
     d4a:	86 b3       	in	r24, 0x16	; 22
     d4c:	90 e0       	ldi	r25, 0x00	; 0
     d4e:	02 c0       	rjmp	.+4      	; 0xd54 <DIO_u8GetPinValue+0x34>
     d50:	95 95       	asr	r25
     d52:	87 95       	ror	r24
     d54:	6a 95       	dec	r22
     d56:	e2 f7       	brpl	.-8      	; 0xd50 <DIO_u8GetPinValue+0x30>
     d58:	81 70       	andi	r24, 0x01	; 1
     d5a:	08 95       	ret
			break;
			case PORTC_ID:
			return GET_BIT(PINC, Copy_u8Pin);
     d5c:	83 b3       	in	r24, 0x13	; 19
     d5e:	90 e0       	ldi	r25, 0x00	; 0
     d60:	02 c0       	rjmp	.+4      	; 0xd66 <DIO_u8GetPinValue+0x46>
     d62:	95 95       	asr	r25
     d64:	87 95       	ror	r24
     d66:	6a 95       	dec	r22
     d68:	e2 f7       	brpl	.-8      	; 0xd62 <DIO_u8GetPinValue+0x42>
     d6a:	81 70       	andi	r24, 0x01	; 1
     d6c:	08 95       	ret
			break;
			case PORTD_ID:
			return GET_BIT(PIND, Copy_u8Pin);
     d6e:	80 b3       	in	r24, 0x10	; 16
     d70:	90 e0       	ldi	r25, 0x00	; 0
     d72:	02 c0       	rjmp	.+4      	; 0xd78 <DIO_u8GetPinValue+0x58>
     d74:	95 95       	asr	r25
     d76:	87 95       	ror	r24
     d78:	6a 95       	dec	r22
     d7a:	e2 f7       	brpl	.-8      	; 0xd74 <DIO_u8GetPinValue+0x54>
     d7c:	81 70       	andi	r24, 0x01	; 1
     d7e:	08 95       	ret
	}
	else
	{
		return PIN_LOW;
	}
     d80:	08 95       	ret
			break;
		}
	}
	else
	{
		return PIN_LOW;
     d82:	80 e0       	ldi	r24, 0x00	; 0
     d84:	08 95       	ret
     d86:	80 e0       	ldi	r24, 0x00	; 0
	}
     d88:	08 95       	ret

00000d8a <__divmodhi4>:
     d8a:	97 fb       	bst	r25, 7
     d8c:	07 2e       	mov	r0, r23
     d8e:	16 f4       	brtc	.+4      	; 0xd94 <__divmodhi4+0xa>
     d90:	00 94       	com	r0
     d92:	07 d0       	rcall	.+14     	; 0xda2 <__divmodhi4_neg1>
     d94:	77 fd       	sbrc	r23, 7
     d96:	09 d0       	rcall	.+18     	; 0xdaa <__divmodhi4_neg2>
     d98:	0e 94 df 06 	call	0xdbe	; 0xdbe <__udivmodhi4>
     d9c:	07 fc       	sbrc	r0, 7
     d9e:	05 d0       	rcall	.+10     	; 0xdaa <__divmodhi4_neg2>
     da0:	3e f4       	brtc	.+14     	; 0xdb0 <__divmodhi4_exit>

00000da2 <__divmodhi4_neg1>:
     da2:	90 95       	com	r25
     da4:	81 95       	neg	r24
     da6:	9f 4f       	sbci	r25, 0xFF	; 255
     da8:	08 95       	ret

00000daa <__divmodhi4_neg2>:
     daa:	70 95       	com	r23
     dac:	61 95       	neg	r22
     dae:	7f 4f       	sbci	r23, 0xFF	; 255

00000db0 <__divmodhi4_exit>:
     db0:	08 95       	ret

00000db2 <__tablejump2__>:
     db2:	ee 0f       	add	r30, r30
     db4:	ff 1f       	adc	r31, r31
     db6:	05 90       	lpm	r0, Z+
     db8:	f4 91       	lpm	r31, Z
     dba:	e0 2d       	mov	r30, r0
     dbc:	09 94       	ijmp

00000dbe <__udivmodhi4>:
     dbe:	aa 1b       	sub	r26, r26
     dc0:	bb 1b       	sub	r27, r27
     dc2:	51 e1       	ldi	r21, 0x11	; 17
     dc4:	07 c0       	rjmp	.+14     	; 0xdd4 <__udivmodhi4_ep>

00000dc6 <__udivmodhi4_loop>:
     dc6:	aa 1f       	adc	r26, r26
     dc8:	bb 1f       	adc	r27, r27
     dca:	a6 17       	cp	r26, r22
     dcc:	b7 07       	cpc	r27, r23
     dce:	10 f0       	brcs	.+4      	; 0xdd4 <__udivmodhi4_ep>
     dd0:	a6 1b       	sub	r26, r22
     dd2:	b7 0b       	sbc	r27, r23

00000dd4 <__udivmodhi4_ep>:
     dd4:	88 1f       	adc	r24, r24
     dd6:	99 1f       	adc	r25, r25
     dd8:	5a 95       	dec	r21
     dda:	a9 f7       	brne	.-22     	; 0xdc6 <__udivmodhi4_loop>
     ddc:	80 95       	com	r24
     dde:	90 95       	com	r25
     de0:	bc 01       	movw	r22, r24
     de2:	cd 01       	movw	r24, r26
     de4:	08 95       	ret

00000de6 <malloc>:
     de6:	0f 93       	push	r16
     de8:	1f 93       	push	r17
     dea:	cf 93       	push	r28
     dec:	df 93       	push	r29
     dee:	82 30       	cpi	r24, 0x02	; 2
     df0:	91 05       	cpc	r25, r1
     df2:	10 f4       	brcc	.+4      	; 0xdf8 <malloc+0x12>
     df4:	82 e0       	ldi	r24, 0x02	; 2
     df6:	90 e0       	ldi	r25, 0x00	; 0
     df8:	e0 91 8c 00 	lds	r30, 0x008C	; 0x80008c <__flp>
     dfc:	f0 91 8d 00 	lds	r31, 0x008D	; 0x80008d <__flp+0x1>
     e00:	20 e0       	ldi	r18, 0x00	; 0
     e02:	30 e0       	ldi	r19, 0x00	; 0
     e04:	a0 e0       	ldi	r26, 0x00	; 0
     e06:	b0 e0       	ldi	r27, 0x00	; 0
     e08:	30 97       	sbiw	r30, 0x00	; 0
     e0a:	19 f1       	breq	.+70     	; 0xe52 <malloc+0x6c>
     e0c:	40 81       	ld	r20, Z
     e0e:	51 81       	ldd	r21, Z+1	; 0x01
     e10:	02 81       	ldd	r16, Z+2	; 0x02
     e12:	13 81       	ldd	r17, Z+3	; 0x03
     e14:	48 17       	cp	r20, r24
     e16:	59 07       	cpc	r21, r25
     e18:	c8 f0       	brcs	.+50     	; 0xe4c <malloc+0x66>
     e1a:	84 17       	cp	r24, r20
     e1c:	95 07       	cpc	r25, r21
     e1e:	69 f4       	brne	.+26     	; 0xe3a <malloc+0x54>
     e20:	10 97       	sbiw	r26, 0x00	; 0
     e22:	31 f0       	breq	.+12     	; 0xe30 <malloc+0x4a>
     e24:	12 96       	adiw	r26, 0x02	; 2
     e26:	0c 93       	st	X, r16
     e28:	12 97       	sbiw	r26, 0x02	; 2
     e2a:	13 96       	adiw	r26, 0x03	; 3
     e2c:	1c 93       	st	X, r17
     e2e:	27 c0       	rjmp	.+78     	; 0xe7e <malloc+0x98>
     e30:	00 93 8c 00 	sts	0x008C, r16	; 0x80008c <__flp>
     e34:	10 93 8d 00 	sts	0x008D, r17	; 0x80008d <__flp+0x1>
     e38:	22 c0       	rjmp	.+68     	; 0xe7e <malloc+0x98>
     e3a:	21 15       	cp	r18, r1
     e3c:	31 05       	cpc	r19, r1
     e3e:	19 f0       	breq	.+6      	; 0xe46 <malloc+0x60>
     e40:	42 17       	cp	r20, r18
     e42:	53 07       	cpc	r21, r19
     e44:	18 f4       	brcc	.+6      	; 0xe4c <malloc+0x66>
     e46:	9a 01       	movw	r18, r20
     e48:	bd 01       	movw	r22, r26
     e4a:	ef 01       	movw	r28, r30
     e4c:	df 01       	movw	r26, r30
     e4e:	f8 01       	movw	r30, r16
     e50:	db cf       	rjmp	.-74     	; 0xe08 <malloc+0x22>
     e52:	21 15       	cp	r18, r1
     e54:	31 05       	cpc	r19, r1
     e56:	f9 f0       	breq	.+62     	; 0xe96 <malloc+0xb0>
     e58:	28 1b       	sub	r18, r24
     e5a:	39 0b       	sbc	r19, r25
     e5c:	24 30       	cpi	r18, 0x04	; 4
     e5e:	31 05       	cpc	r19, r1
     e60:	80 f4       	brcc	.+32     	; 0xe82 <malloc+0x9c>
     e62:	8a 81       	ldd	r24, Y+2	; 0x02
     e64:	9b 81       	ldd	r25, Y+3	; 0x03
     e66:	61 15       	cp	r22, r1
     e68:	71 05       	cpc	r23, r1
     e6a:	21 f0       	breq	.+8      	; 0xe74 <malloc+0x8e>
     e6c:	fb 01       	movw	r30, r22
     e6e:	93 83       	std	Z+3, r25	; 0x03
     e70:	82 83       	std	Z+2, r24	; 0x02
     e72:	04 c0       	rjmp	.+8      	; 0xe7c <malloc+0x96>
     e74:	90 93 8d 00 	sts	0x008D, r25	; 0x80008d <__flp+0x1>
     e78:	80 93 8c 00 	sts	0x008C, r24	; 0x80008c <__flp>
     e7c:	fe 01       	movw	r30, r28
     e7e:	32 96       	adiw	r30, 0x02	; 2
     e80:	44 c0       	rjmp	.+136    	; 0xf0a <malloc+0x124>
     e82:	fe 01       	movw	r30, r28
     e84:	e2 0f       	add	r30, r18
     e86:	f3 1f       	adc	r31, r19
     e88:	81 93       	st	Z+, r24
     e8a:	91 93       	st	Z+, r25
     e8c:	22 50       	subi	r18, 0x02	; 2
     e8e:	31 09       	sbc	r19, r1
     e90:	39 83       	std	Y+1, r19	; 0x01
     e92:	28 83       	st	Y, r18
     e94:	3a c0       	rjmp	.+116    	; 0xf0a <malloc+0x124>
     e96:	20 91 8a 00 	lds	r18, 0x008A	; 0x80008a <__brkval>
     e9a:	30 91 8b 00 	lds	r19, 0x008B	; 0x80008b <__brkval+0x1>
     e9e:	23 2b       	or	r18, r19
     ea0:	41 f4       	brne	.+16     	; 0xeb2 <malloc+0xcc>
     ea2:	20 91 62 00 	lds	r18, 0x0062	; 0x800062 <__malloc_heap_start>
     ea6:	30 91 63 00 	lds	r19, 0x0063	; 0x800063 <__malloc_heap_start+0x1>
     eaa:	30 93 8b 00 	sts	0x008B, r19	; 0x80008b <__brkval+0x1>
     eae:	20 93 8a 00 	sts	0x008A, r18	; 0x80008a <__brkval>
     eb2:	20 91 60 00 	lds	r18, 0x0060	; 0x800060 <__DATA_REGION_ORIGIN__>
     eb6:	30 91 61 00 	lds	r19, 0x0061	; 0x800061 <__DATA_REGION_ORIGIN__+0x1>
     eba:	21 15       	cp	r18, r1
     ebc:	31 05       	cpc	r19, r1
     ebe:	41 f4       	brne	.+16     	; 0xed0 <malloc+0xea>
     ec0:	2d b7       	in	r18, 0x3d	; 61
     ec2:	3e b7       	in	r19, 0x3e	; 62
     ec4:	40 91 64 00 	lds	r20, 0x0064	; 0x800064 <__malloc_margin>
     ec8:	50 91 65 00 	lds	r21, 0x0065	; 0x800065 <__malloc_margin+0x1>
     ecc:	24 1b       	sub	r18, r20
     ece:	35 0b       	sbc	r19, r21
     ed0:	e0 91 8a 00 	lds	r30, 0x008A	; 0x80008a <__brkval>
     ed4:	f0 91 8b 00 	lds	r31, 0x008B	; 0x80008b <__brkval+0x1>
     ed8:	e2 17       	cp	r30, r18
     eda:	f3 07       	cpc	r31, r19
     edc:	a0 f4       	brcc	.+40     	; 0xf06 <malloc+0x120>
     ede:	2e 1b       	sub	r18, r30
     ee0:	3f 0b       	sbc	r19, r31
     ee2:	28 17       	cp	r18, r24
     ee4:	39 07       	cpc	r19, r25
     ee6:	78 f0       	brcs	.+30     	; 0xf06 <malloc+0x120>
     ee8:	ac 01       	movw	r20, r24
     eea:	4e 5f       	subi	r20, 0xFE	; 254
     eec:	5f 4f       	sbci	r21, 0xFF	; 255
     eee:	24 17       	cp	r18, r20
     ef0:	35 07       	cpc	r19, r21
     ef2:	48 f0       	brcs	.+18     	; 0xf06 <malloc+0x120>
     ef4:	4e 0f       	add	r20, r30
     ef6:	5f 1f       	adc	r21, r31
     ef8:	50 93 8b 00 	sts	0x008B, r21	; 0x80008b <__brkval+0x1>
     efc:	40 93 8a 00 	sts	0x008A, r20	; 0x80008a <__brkval>
     f00:	81 93       	st	Z+, r24
     f02:	91 93       	st	Z+, r25
     f04:	02 c0       	rjmp	.+4      	; 0xf0a <malloc+0x124>
     f06:	e0 e0       	ldi	r30, 0x00	; 0
     f08:	f0 e0       	ldi	r31, 0x00	; 0
     f0a:	cf 01       	movw	r24, r30
     f0c:	df 91       	pop	r29
     f0e:	cf 91       	pop	r28
     f10:	1f 91       	pop	r17
     f12:	0f 91       	pop	r16
     f14:	08 95       	ret

00000f16 <free>:
     f16:	cf 93       	push	r28
     f18:	df 93       	push	r29
     f1a:	00 97       	sbiw	r24, 0x00	; 0
     f1c:	09 f4       	brne	.+2      	; 0xf20 <free+0xa>
     f1e:	81 c0       	rjmp	.+258    	; 0x1022 <free+0x10c>
     f20:	fc 01       	movw	r30, r24
     f22:	32 97       	sbiw	r30, 0x02	; 2
     f24:	13 82       	std	Z+3, r1	; 0x03
     f26:	12 82       	std	Z+2, r1	; 0x02
     f28:	a0 91 8c 00 	lds	r26, 0x008C	; 0x80008c <__flp>
     f2c:	b0 91 8d 00 	lds	r27, 0x008D	; 0x80008d <__flp+0x1>
     f30:	10 97       	sbiw	r26, 0x00	; 0
     f32:	81 f4       	brne	.+32     	; 0xf54 <free+0x3e>
     f34:	20 81       	ld	r18, Z
     f36:	31 81       	ldd	r19, Z+1	; 0x01
     f38:	82 0f       	add	r24, r18
     f3a:	93 1f       	adc	r25, r19
     f3c:	20 91 8a 00 	lds	r18, 0x008A	; 0x80008a <__brkval>
     f40:	30 91 8b 00 	lds	r19, 0x008B	; 0x80008b <__brkval+0x1>
     f44:	28 17       	cp	r18, r24
     f46:	39 07       	cpc	r19, r25
     f48:	51 f5       	brne	.+84     	; 0xf9e <free+0x88>
     f4a:	f0 93 8b 00 	sts	0x008B, r31	; 0x80008b <__brkval+0x1>
     f4e:	e0 93 8a 00 	sts	0x008A, r30	; 0x80008a <__brkval>
     f52:	67 c0       	rjmp	.+206    	; 0x1022 <free+0x10c>
     f54:	ed 01       	movw	r28, r26
     f56:	20 e0       	ldi	r18, 0x00	; 0
     f58:	30 e0       	ldi	r19, 0x00	; 0
     f5a:	ce 17       	cp	r28, r30
     f5c:	df 07       	cpc	r29, r31
     f5e:	40 f4       	brcc	.+16     	; 0xf70 <free+0x5a>
     f60:	4a 81       	ldd	r20, Y+2	; 0x02
     f62:	5b 81       	ldd	r21, Y+3	; 0x03
     f64:	9e 01       	movw	r18, r28
     f66:	41 15       	cp	r20, r1
     f68:	51 05       	cpc	r21, r1
     f6a:	f1 f0       	breq	.+60     	; 0xfa8 <free+0x92>
     f6c:	ea 01       	movw	r28, r20
     f6e:	f5 cf       	rjmp	.-22     	; 0xf5a <free+0x44>
     f70:	d3 83       	std	Z+3, r29	; 0x03
     f72:	c2 83       	std	Z+2, r28	; 0x02
     f74:	40 81       	ld	r20, Z
     f76:	51 81       	ldd	r21, Z+1	; 0x01
     f78:	84 0f       	add	r24, r20
     f7a:	95 1f       	adc	r25, r21
     f7c:	c8 17       	cp	r28, r24
     f7e:	d9 07       	cpc	r29, r25
     f80:	59 f4       	brne	.+22     	; 0xf98 <free+0x82>
     f82:	88 81       	ld	r24, Y
     f84:	99 81       	ldd	r25, Y+1	; 0x01
     f86:	84 0f       	add	r24, r20
     f88:	95 1f       	adc	r25, r21
     f8a:	02 96       	adiw	r24, 0x02	; 2
     f8c:	91 83       	std	Z+1, r25	; 0x01
     f8e:	80 83       	st	Z, r24
     f90:	8a 81       	ldd	r24, Y+2	; 0x02
     f92:	9b 81       	ldd	r25, Y+3	; 0x03
     f94:	93 83       	std	Z+3, r25	; 0x03
     f96:	82 83       	std	Z+2, r24	; 0x02
     f98:	21 15       	cp	r18, r1
     f9a:	31 05       	cpc	r19, r1
     f9c:	29 f4       	brne	.+10     	; 0xfa8 <free+0x92>
     f9e:	f0 93 8d 00 	sts	0x008D, r31	; 0x80008d <__flp+0x1>
     fa2:	e0 93 8c 00 	sts	0x008C, r30	; 0x80008c <__flp>
     fa6:	3d c0       	rjmp	.+122    	; 0x1022 <free+0x10c>
     fa8:	e9 01       	movw	r28, r18
     faa:	fb 83       	std	Y+3, r31	; 0x03
     fac:	ea 83       	std	Y+2, r30	; 0x02
     fae:	49 91       	ld	r20, Y+
     fb0:	59 91       	ld	r21, Y+
     fb2:	c4 0f       	add	r28, r20
     fb4:	d5 1f       	adc	r29, r21
     fb6:	ec 17       	cp	r30, r28
     fb8:	fd 07       	cpc	r31, r29
     fba:	61 f4       	brne	.+24     	; 0xfd4 <free+0xbe>
     fbc:	80 81       	ld	r24, Z
     fbe:	91 81       	ldd	r25, Z+1	; 0x01
     fc0:	84 0f       	add	r24, r20
     fc2:	95 1f       	adc	r25, r21
     fc4:	02 96       	adiw	r24, 0x02	; 2
     fc6:	e9 01       	movw	r28, r18
     fc8:	99 83       	std	Y+1, r25	; 0x01
     fca:	88 83       	st	Y, r24
     fcc:	82 81       	ldd	r24, Z+2	; 0x02
     fce:	93 81       	ldd	r25, Z+3	; 0x03
     fd0:	9b 83       	std	Y+3, r25	; 0x03
     fd2:	8a 83       	std	Y+2, r24	; 0x02
     fd4:	e0 e0       	ldi	r30, 0x00	; 0
     fd6:	f0 e0       	ldi	r31, 0x00	; 0
     fd8:	12 96       	adiw	r26, 0x02	; 2
     fda:	8d 91       	ld	r24, X+
     fdc:	9c 91       	ld	r25, X
     fde:	13 97       	sbiw	r26, 0x03	; 3
     fe0:	00 97       	sbiw	r24, 0x00	; 0
     fe2:	19 f0       	breq	.+6      	; 0xfea <free+0xd4>
     fe4:	fd 01       	movw	r30, r26
     fe6:	dc 01       	movw	r26, r24
     fe8:	f7 cf       	rjmp	.-18     	; 0xfd8 <free+0xc2>
     fea:	8d 91       	ld	r24, X+
     fec:	9c 91       	ld	r25, X
     fee:	11 97       	sbiw	r26, 0x01	; 1
     ff0:	9d 01       	movw	r18, r26
     ff2:	2e 5f       	subi	r18, 0xFE	; 254
     ff4:	3f 4f       	sbci	r19, 0xFF	; 255
     ff6:	82 0f       	add	r24, r18
     ff8:	93 1f       	adc	r25, r19
     ffa:	20 91 8a 00 	lds	r18, 0x008A	; 0x80008a <__brkval>
     ffe:	30 91 8b 00 	lds	r19, 0x008B	; 0x80008b <__brkval+0x1>
    1002:	28 17       	cp	r18, r24
    1004:	39 07       	cpc	r19, r25
    1006:	69 f4       	brne	.+26     	; 0x1022 <free+0x10c>
    1008:	30 97       	sbiw	r30, 0x00	; 0
    100a:	29 f4       	brne	.+10     	; 0x1016 <free+0x100>
    100c:	10 92 8d 00 	sts	0x008D, r1	; 0x80008d <__flp+0x1>
    1010:	10 92 8c 00 	sts	0x008C, r1	; 0x80008c <__flp>
    1014:	02 c0       	rjmp	.+4      	; 0x101a <free+0x104>
    1016:	13 82       	std	Z+3, r1	; 0x03
    1018:	12 82       	std	Z+2, r1	; 0x02
    101a:	b0 93 8b 00 	sts	0x008B, r27	; 0x80008b <__brkval+0x1>
    101e:	a0 93 8a 00 	sts	0x008A, r26	; 0x80008a <__brkval>
    1022:	df 91       	pop	r29
    1024:	cf 91       	pop	r28
    1026:	08 95       	ret

00001028 <_exit>:
    1028:	f8 94       	cli

0000102a <__stop_program>:
    102a:	ff cf       	rjmp	.-2      	; 0x102a <__stop_program>
